

Microchip MPLAB XC8 Assembler V2.46 build 20240104201356 
                                                                                               Sat Aug  3 12:55:56 2024

Microchip MPLAB XC8 C Compiler v2.46 (Free license) build 20240104201356 Og1 
     1                           	processor	16F1827
     2                           	pagewidth 120
     3                           	opt	flic
     4                           	psect	stringtext1,global,class=STRCODE,delta=2,noexec
     5                           	psect	stringtext2,global,class=STRCODE,delta=2,noexec
     6                           	psect	stringtext3,global,class=STRCODE,delta=2,noexec
     7                           	psect	stringtext4,global,class=STRCODE,delta=2,noexec
     8                           	psect	stringtext5,global,class=STRCODE,delta=2,noexec
     9                           	psect	stringtext6,global,class=STRCODE,delta=2,noexec
    10                           	psect	stringtext7,global,class=STRCODE,delta=2,noexec
    11                           	psect	stringtext8,global,class=STRCODE,delta=2,noexec
    12                           	psect	cinit,global,class=CODE,merge=1,delta=2
    13                           	psect	bssEEDATA,global,class=EEDATA,space=3,delta=2,noexec
    14                           	psect	bssCOMMON,global,class=COMMON,space=1,delta=1,noexec
    15                           	psect	bssBANK0,global,class=BANK0,space=1,delta=1,noexec
    16                           	psect	clrtext,global,class=CODE,delta=2
    17                           	psect	cstackCOMMON,global,class=COMMON,space=1,delta=1,noexec
    18                           	psect	cstackBANK0,global,class=BANK0,space=1,delta=1,noexec
    19                           	psect	maintext,global,class=CODE,merge=1,split=1,delta=2
    20                           	psect	text1,local,class=CODE,merge=1,delta=2
    21                           	psect	text2,local,class=CODE,merge=1,delta=2
    22                           	psect	text3,local,class=CODE,merge=1,delta=2
    23                           	psect	text4,local,class=CODE,merge=1,delta=2
    24                           	psect	text5,local,class=CODE,merge=1,delta=2
    25                           	psect	text6,local,class=CODE,merge=1,delta=2
    26                           	psect	text7,local,class=CODE,merge=1,delta=2
    27                           	psect	text8,local,class=CODE,merge=1,delta=2
    28                           	psect	text9,local,class=CODE,merge=1,delta=2
    29                           	psect	text10,local,class=CODE,merge=1,delta=2
    30                           	psect	text11,local,class=CODE,merge=1,delta=2,group=1
    31                           	psect	text12,local,class=CODE,merge=1,delta=2
    32                           	psect	text13,local,class=CODE,merge=1,delta=2
    33                           	psect	text14,local,class=CODE,merge=1,delta=2
    34                           	psect	text15,local,class=CODE,merge=1,delta=2
    35                           	psect	text16,local,class=CODE,merge=1,delta=2
    36                           	psect	text17,local,class=CODE,merge=1,delta=2
    37                           	psect	text18,local,class=CODE,merge=1,delta=2
    38                           	psect	text19,local,class=CODE,merge=1,delta=2
    39                           	psect	text20,local,class=CODE,merge=1,delta=2
    40                           	psect	config,global,abs,ovrld,class=CONFIG,space=4,delta=2,noexec
    41                           	dabs	1,0x7E,2
    42     0000                     
    43                           ; Generated 07/09/2023 GMT
    44                           ; 
    45                           ; Copyright © 2023, Microchip Technology Inc. and its subsidiaries ("Microchip")
    46                           ; All rights reserved.
    47                           ; 
    48                           ; This software is developed by Microchip Technology Inc. and its subsidiaries ("Microch
      +                          ip").
    49                           ; 
    50                           ; Redistribution and use in source and binary forms, with or without modification, are
    51                           ; permitted provided that the following conditions are met:
    52                           ; 
    53                           ;     1. Redistributions of source code must retain the above copyright notice, this lis
      +                          t of
    54                           ;        conditions and the following disclaimer.
    55                           ; 
    56                           ;     2. Redistributions in binary form must reproduce the above copyright notice, this 
      +                          list
    57                           ;        of conditions and the following disclaimer in the documentation and/or other
    58                           ;        materials provided with the distribution. Publication is not required when
    59                           ;        this file is used in an embedded application.
    60                           ; 
    61                           ;     3. Microchip's name may not be used to endorse or promote products derived from th
      +                          is
    62                           ;        software without specific prior written permission.
    63                           ; 
    64                           ; THIS SOFTWARE IS PROVIDED BY MICROCHIP "AS IS" AND ANY EXPRESS OR IMPLIED WARRANTIES,
    65                           ; INCLUDING, BUT NOT LIMITED TO, THE IMPLIED WARRANTIES OF MERCHANTABILITY AND FITNESS F
      +                          OR
    66                           ; PURPOSE ARE DISCLAIMED.  IN NO EVENT SHALL MICROCHIP BE LIABLE FOR ANY DIRECT, INDIREC
      +                          T,
    67                           ; INCIDENTAL, SPECIAL, EXEMPLARY, OR CONSEQUENTIAL DAMAGES (INCLUDING BUT NOT LIMITED TO
    68                           ; PROCUREMENT OF SUBSTITUTE GOODS OR SERVICES; LOSS OF USE, DATA OR PROFITS; OR BUSINESS
    69                           ; INTERRUPTION) HOWSOEVER CAUSED AND ON ANY THEORY OF LIABILITY, WHETHER IN CONTRACT, ST
      +                          RICT
    70                           ; LIABILITY, OR TORT (INCLUDING NEGLIGENCE OR OTHERWISE) ARISING IN ANY WAY OUT OF THE U
      +                          SE OF
    71                           ; THIS SOFTWARE, EVEN IF ADVISED OF THE POSSIBILITY OF SUCH DAMAGE.
    72                           ; 
    73                           ; 
    74                           ; Code-generator required, PIC16F1827 Definitions
    75                           ; 
    76                           ; SFR Addresses
    77     0000                     	;# 
    78     0001                     	;# 
    79     0002                     	;# 
    80     0003                     	;# 
    81     0004                     	;# 
    82     0005                     	;# 
    83     0006                     	;# 
    84     0007                     	;# 
    85     0008                     	;# 
    86     0009                     	;# 
    87     000A                     	;# 
    88     000B                     	;# 
    89     000C                     	;# 
    90     000D                     	;# 
    91     0011                     	;# 
    92     0012                     	;# 
    93     0013                     	;# 
    94     0014                     	;# 
    95     0015                     	;# 
    96     0016                     	;# 
    97     0016                     	;# 
    98     0017                     	;# 
    99     0018                     	;# 
   100     0019                     	;# 
   101     001A                     	;# 
   102     001B                     	;# 
   103     001C                     	;# 
   104     001E                     	;# 
   105     001F                     	;# 
   106     008C                     	;# 
   107     008D                     	;# 
   108     0091                     	;# 
   109     0092                     	;# 
   110     0093                     	;# 
   111     0094                     	;# 
   112     0095                     	;# 
   113     0096                     	;# 
   114     0097                     	;# 
   115     0098                     	;# 
   116     0099                     	;# 
   117     009A                     	;# 
   118     009B                     	;# 
   119     009B                     	;# 
   120     009C                     	;# 
   121     009D                     	;# 
   122     009E                     	;# 
   123     010C                     	;# 
   124     010D                     	;# 
   125     0111                     	;# 
   126     0112                     	;# 
   127     0113                     	;# 
   128     0114                     	;# 
   129     0115                     	;# 
   130     0116                     	;# 
   131     0117                     	;# 
   132     0118                     	;# 
   133     0119                     	;# 
   134     011A                     	;# 
   135     011B                     	;# 
   136     011D                     	;# 
   137     011E                     	;# 
   138     018C                     	;# 
   139     018D                     	;# 
   140     0191                     	;# 
   141     0191                     	;# 
   142     0192                     	;# 
   143     0193                     	;# 
   144     0193                     	;# 
   145     0193                     	;# 
   146     0194                     	;# 
   147     0195                     	;# 
   148     0196                     	;# 
   149     0199                     	;# 
   150     019A                     	;# 
   151     019B                     	;# 
   152     019B                     	;# 
   153     019B                     	;# 
   154     019B                     	;# 
   155     019C                     	;# 
   156     019C                     	;# 
   157     019D                     	;# 
   158     019E                     	;# 
   159     019F                     	;# 
   160     020C                     	;# 
   161     020D                     	;# 
   162     0211                     	;# 
   163     0211                     	;# 
   164     0212                     	;# 
   165     0212                     	;# 
   166     0213                     	;# 
   167     0213                     	;# 
   168     0214                     	;# 
   169     0214                     	;# 
   170     0215                     	;# 
   171     0215                     	;# 
   172     0215                     	;# 
   173     0216                     	;# 
   174     0216                     	;# 
   175     0217                     	;# 
   176     0217                     	;# 
   177     0219                     	;# 
   178     021A                     	;# 
   179     021B                     	;# 
   180     021C                     	;# 
   181     021D                     	;# 
   182     021E                     	;# 
   183     021F                     	;# 
   184     0291                     	;# 
   185     0291                     	;# 
   186     0292                     	;# 
   187     0293                     	;# 
   188     0294                     	;# 
   189     0295                     	;# 
   190     0295                     	;# 
   191     0296                     	;# 
   192     0298                     	;# 
   193     0298                     	;# 
   194     0299                     	;# 
   195     029A                     	;# 
   196     029B                     	;# 
   197     029C                     	;# 
   198     029C                     	;# 
   199     029D                     	;# 
   200     029E                     	;# 
   201     029E                     	;# 
   202     0311                     	;# 
   203     0311                     	;# 
   204     0312                     	;# 
   205     0313                     	;# 
   206     0318                     	;# 
   207     0318                     	;# 
   208     0319                     	;# 
   209     031A                     	;# 
   210     0394                     	;# 
   211     0395                     	;# 
   212     0396                     	;# 
   213     039A                     	;# 
   214     039C                     	;# 
   215     039D                     	;# 
   216     039E                     	;# 
   217     039F                     	;# 
   218     0415                     	;# 
   219     0416                     	;# 
   220     0417                     	;# 
   221     041C                     	;# 
   222     041D                     	;# 
   223     041E                     	;# 
   224     0FE4                     	;# 
   225     0FE5                     	;# 
   226     0FE6                     	;# 
   227     0FE7                     	;# 
   228     0FE8                     	;# 
   229     0FE9                     	;# 
   230     0FEA                     	;# 
   231     0FEB                     	;# 
   232     0FED                     	;# 
   233     0FEE                     	;# 
   234     0FEF                     	;# 
   235     0000                     	;# 
   236     0001                     	;# 
   237     0002                     	;# 
   238     0003                     	;# 
   239     0004                     	;# 
   240     0005                     	;# 
   241     0006                     	;# 
   242     0007                     	;# 
   243     0008                     	;# 
   244     0009                     	;# 
   245     000A                     	;# 
   246     000B                     	;# 
   247     000C                     	;# 
   248     000D                     	;# 
   249     0011                     	;# 
   250     0012                     	;# 
   251     0013                     	;# 
   252     0014                     	;# 
   253     0015                     	;# 
   254     0016                     	;# 
   255     0016                     	;# 
   256     0017                     	;# 
   257     0018                     	;# 
   258     0019                     	;# 
   259     001A                     	;# 
   260     001B                     	;# 
   261     001C                     	;# 
   262     001E                     	;# 
   263     001F                     	;# 
   264     008C                     	;# 
   265     008D                     	;# 
   266     0091                     	;# 
   267     0092                     	;# 
   268     0093                     	;# 
   269     0094                     	;# 
   270     0095                     	;# 
   271     0096                     	;# 
   272     0097                     	;# 
   273     0098                     	;# 
   274     0099                     	;# 
   275     009A                     	;# 
   276     009B                     	;# 
   277     009B                     	;# 
   278     009C                     	;# 
   279     009D                     	;# 
   280     009E                     	;# 
   281     010C                     	;# 
   282     010D                     	;# 
   283     0111                     	;# 
   284     0112                     	;# 
   285     0113                     	;# 
   286     0114                     	;# 
   287     0115                     	;# 
   288     0116                     	;# 
   289     0117                     	;# 
   290     0118                     	;# 
   291     0119                     	;# 
   292     011A                     	;# 
   293     011B                     	;# 
   294     011D                     	;# 
   295     011E                     	;# 
   296     018C                     	;# 
   297     018D                     	;# 
   298     0191                     	;# 
   299     0191                     	;# 
   300     0192                     	;# 
   301     0193                     	;# 
   302     0193                     	;# 
   303     0193                     	;# 
   304     0194                     	;# 
   305     0195                     	;# 
   306     0196                     	;# 
   307     0199                     	;# 
   308     019A                     	;# 
   309     019B                     	;# 
   310     019B                     	;# 
   311     019B                     	;# 
   312     019B                     	;# 
   313     019C                     	;# 
   314     019C                     	;# 
   315     019D                     	;# 
   316     019E                     	;# 
   317     019F                     	;# 
   318     020C                     	;# 
   319     020D                     	;# 
   320     0211                     	;# 
   321     0211                     	;# 
   322     0212                     	;# 
   323     0212                     	;# 
   324     0213                     	;# 
   325     0213                     	;# 
   326     0214                     	;# 
   327     0214                     	;# 
   328     0215                     	;# 
   329     0215                     	;# 
   330     0215                     	;# 
   331     0216                     	;# 
   332     0216                     	;# 
   333     0217                     	;# 
   334     0217                     	;# 
   335     0219                     	;# 
   336     021A                     	;# 
   337     021B                     	;# 
   338     021C                     	;# 
   339     021D                     	;# 
   340     021E                     	;# 
   341     021F                     	;# 
   342     0291                     	;# 
   343     0291                     	;# 
   344     0292                     	;# 
   345     0293                     	;# 
   346     0294                     	;# 
   347     0295                     	;# 
   348     0295                     	;# 
   349     0296                     	;# 
   350     0298                     	;# 
   351     0298                     	;# 
   352     0299                     	;# 
   353     029A                     	;# 
   354     029B                     	;# 
   355     029C                     	;# 
   356     029C                     	;# 
   357     029D                     	;# 
   358     029E                     	;# 
   359     029E                     	;# 
   360     0311                     	;# 
   361     0311                     	;# 
   362     0312                     	;# 
   363     0313                     	;# 
   364     0318                     	;# 
   365     0318                     	;# 
   366     0319                     	;# 
   367     031A                     	;# 
   368     0394                     	;# 
   369     0395                     	;# 
   370     0396                     	;# 
   371     039A                     	;# 
   372     039C                     	;# 
   373     039D                     	;# 
   374     039E                     	;# 
   375     039F                     	;# 
   376     0415                     	;# 
   377     0416                     	;# 
   378     0417                     	;# 
   379     041C                     	;# 
   380     041D                     	;# 
   381     041E                     	;# 
   382     0FE4                     	;# 
   383     0FE5                     	;# 
   384     0FE6                     	;# 
   385     0FE7                     	;# 
   386     0FE8                     	;# 
   387     0FE9                     	;# 
   388     0FEA                     	;# 
   389     0FEB                     	;# 
   390     0FED                     	;# 
   391     0FEE                     	;# 
   392     0FEF                     	;# 
   393     0000                     	;# 
   394     0001                     	;# 
   395     0002                     	;# 
   396     0003                     	;# 
   397     0004                     	;# 
   398     0005                     	;# 
   399     0006                     	;# 
   400     0007                     	;# 
   401     0008                     	;# 
   402     0009                     	;# 
   403     000A                     	;# 
   404     000B                     	;# 
   405     000C                     	;# 
   406     000D                     	;# 
   407     0011                     	;# 
   408     0012                     	;# 
   409     0013                     	;# 
   410     0014                     	;# 
   411     0015                     	;# 
   412     0016                     	;# 
   413     0016                     	;# 
   414     0017                     	;# 
   415     0018                     	;# 
   416     0019                     	;# 
   417     001A                     	;# 
   418     001B                     	;# 
   419     001C                     	;# 
   420     001E                     	;# 
   421     001F                     	;# 
   422     008C                     	;# 
   423     008D                     	;# 
   424     0091                     	;# 
   425     0092                     	;# 
   426     0093                     	;# 
   427     0094                     	;# 
   428     0095                     	;# 
   429     0096                     	;# 
   430     0097                     	;# 
   431     0098                     	;# 
   432     0099                     	;# 
   433     009A                     	;# 
   434     009B                     	;# 
   435     009B                     	;# 
   436     009C                     	;# 
   437     009D                     	;# 
   438     009E                     	;# 
   439     010C                     	;# 
   440     010D                     	;# 
   441     0111                     	;# 
   442     0112                     	;# 
   443     0113                     	;# 
   444     0114                     	;# 
   445     0115                     	;# 
   446     0116                     	;# 
   447     0117                     	;# 
   448     0118                     	;# 
   449     0119                     	;# 
   450     011A                     	;# 
   451     011B                     	;# 
   452     011D                     	;# 
   453     011E                     	;# 
   454     018C                     	;# 
   455     018D                     	;# 
   456     0191                     	;# 
   457     0191                     	;# 
   458     0192                     	;# 
   459     0193                     	;# 
   460     0193                     	;# 
   461     0193                     	;# 
   462     0194                     	;# 
   463     0195                     	;# 
   464     0196                     	;# 
   465     0199                     	;# 
   466     019A                     	;# 
   467     019B                     	;# 
   468     019B                     	;# 
   469     019B                     	;# 
   470     019B                     	;# 
   471     019C                     	;# 
   472     019C                     	;# 
   473     019D                     	;# 
   474     019E                     	;# 
   475     019F                     	;# 
   476     020C                     	;# 
   477     020D                     	;# 
   478     0211                     	;# 
   479     0211                     	;# 
   480     0212                     	;# 
   481     0212                     	;# 
   482     0213                     	;# 
   483     0213                     	;# 
   484     0214                     	;# 
   485     0214                     	;# 
   486     0215                     	;# 
   487     0215                     	;# 
   488     0215                     	;# 
   489     0216                     	;# 
   490     0216                     	;# 
   491     0217                     	;# 
   492     0217                     	;# 
   493     0219                     	;# 
   494     021A                     	;# 
   495     021B                     	;# 
   496     021C                     	;# 
   497     021D                     	;# 
   498     021E                     	;# 
   499     021F                     	;# 
   500     0291                     	;# 
   501     0291                     	;# 
   502     0292                     	;# 
   503     0293                     	;# 
   504     0294                     	;# 
   505     0295                     	;# 
   506     0295                     	;# 
   507     0296                     	;# 
   508     0298                     	;# 
   509     0298                     	;# 
   510     0299                     	;# 
   511     029A                     	;# 
   512     029B                     	;# 
   513     029C                     	;# 
   514     029C                     	;# 
   515     029D                     	;# 
   516     029E                     	;# 
   517     029E                     	;# 
   518     0311                     	;# 
   519     0311                     	;# 
   520     0312                     	;# 
   521     0313                     	;# 
   522     0318                     	;# 
   523     0318                     	;# 
   524     0319                     	;# 
   525     031A                     	;# 
   526     0394                     	;# 
   527     0395                     	;# 
   528     0396                     	;# 
   529     039A                     	;# 
   530     039C                     	;# 
   531     039D                     	;# 
   532     039E                     	;# 
   533     039F                     	;# 
   534     0415                     	;# 
   535     0416                     	;# 
   536     0417                     	;# 
   537     041C                     	;# 
   538     041D                     	;# 
   539     041E                     	;# 
   540     0FE4                     	;# 
   541     0FE5                     	;# 
   542     0FE6                     	;# 
   543     0FE7                     	;# 
   544     0FE8                     	;# 
   545     0FE9                     	;# 
   546     0FEA                     	;# 
   547     0FEB                     	;# 
   548     0FED                     	;# 
   549     0FEE                     	;# 
   550     0FEF                     	;# 
   551     0000                     	;# 
   552     0001                     	;# 
   553     0002                     	;# 
   554     0003                     	;# 
   555     0004                     	;# 
   556     0005                     	;# 
   557     0006                     	;# 
   558     0007                     	;# 
   559     0008                     	;# 
   560     0009                     	;# 
   561     000A                     	;# 
   562     000B                     	;# 
   563     000C                     	;# 
   564     000D                     	;# 
   565     0011                     	;# 
   566     0012                     	;# 
   567     0013                     	;# 
   568     0014                     	;# 
   569     0015                     	;# 
   570     0016                     	;# 
   571     0016                     	;# 
   572     0017                     	;# 
   573     0018                     	;# 
   574     0019                     	;# 
   575     001A                     	;# 
   576     001B                     	;# 
   577     001C                     	;# 
   578     001E                     	;# 
   579     001F                     	;# 
   580     008C                     	;# 
   581     008D                     	;# 
   582     0091                     	;# 
   583     0092                     	;# 
   584     0093                     	;# 
   585     0094                     	;# 
   586     0095                     	;# 
   587     0096                     	;# 
   588     0097                     	;# 
   589     0098                     	;# 
   590     0099                     	;# 
   591     009A                     	;# 
   592     009B                     	;# 
   593     009B                     	;# 
   594     009C                     	;# 
   595     009D                     	;# 
   596     009E                     	;# 
   597     010C                     	;# 
   598     010D                     	;# 
   599     0111                     	;# 
   600     0112                     	;# 
   601     0113                     	;# 
   602     0114                     	;# 
   603     0115                     	;# 
   604     0116                     	;# 
   605     0117                     	;# 
   606     0118                     	;# 
   607     0119                     	;# 
   608     011A                     	;# 
   609     011B                     	;# 
   610     011D                     	;# 
   611     011E                     	;# 
   612     018C                     	;# 
   613     018D                     	;# 
   614     0191                     	;# 
   615     0191                     	;# 
   616     0192                     	;# 
   617     0193                     	;# 
   618     0193                     	;# 
   619     0193                     	;# 
   620     0194                     	;# 
   621     0195                     	;# 
   622     0196                     	;# 
   623     0199                     	;# 
   624     019A                     	;# 
   625     019B                     	;# 
   626     019B                     	;# 
   627     019B                     	;# 
   628     019B                     	;# 
   629     019C                     	;# 
   630     019C                     	;# 
   631     019D                     	;# 
   632     019E                     	;# 
   633     019F                     	;# 
   634     020C                     	;# 
   635     020D                     	;# 
   636     0211                     	;# 
   637     0211                     	;# 
   638     0212                     	;# 
   639     0212                     	;# 
   640     0213                     	;# 
   641     0213                     	;# 
   642     0214                     	;# 
   643     0214                     	;# 
   644     0215                     	;# 
   645     0215                     	;# 
   646     0215                     	;# 
   647     0216                     	;# 
   648     0216                     	;# 
   649     0217                     	;# 
   650     0217                     	;# 
   651     0219                     	;# 
   652     021A                     	;# 
   653     021B                     	;# 
   654     021C                     	;# 
   655     021D                     	;# 
   656     021E                     	;# 
   657     021F                     	;# 
   658     0291                     	;# 
   659     0291                     	;# 
   660     0292                     	;# 
   661     0293                     	;# 
   662     0294                     	;# 
   663     0295                     	;# 
   664     0295                     	;# 
   665     0296                     	;# 
   666     0298                     	;# 
   667     0298                     	;# 
   668     0299                     	;# 
   669     029A                     	;# 
   670     029B                     	;# 
   671     029C                     	;# 
   672     029C                     	;# 
   673     029D                     	;# 
   674     029E                     	;# 
   675     029E                     	;# 
   676     0311                     	;# 
   677     0311                     	;# 
   678     0312                     	;# 
   679     0313                     	;# 
   680     0318                     	;# 
   681     0318                     	;# 
   682     0319                     	;# 
   683     031A                     	;# 
   684     0394                     	;# 
   685     0395                     	;# 
   686     0396                     	;# 
   687     039A                     	;# 
   688     039C                     	;# 
   689     039D                     	;# 
   690     039E                     	;# 
   691     039F                     	;# 
   692     0415                     	;# 
   693     0416                     	;# 
   694     0417                     	;# 
   695     041C                     	;# 
   696     041D                     	;# 
   697     041E                     	;# 
   698     0FE4                     	;# 
   699     0FE5                     	;# 
   700     0FE6                     	;# 
   701     0FE7                     	;# 
   702     0FE8                     	;# 
   703     0FE9                     	;# 
   704     0FEA                     	;# 
   705     0FEB                     	;# 
   706     0FED                     	;# 
   707     0FEE                     	;# 
   708     0FEF                     	;# 
   709     0000                     	;# 
   710     0001                     	;# 
   711     0002                     	;# 
   712     0003                     	;# 
   713     0004                     	;# 
   714     0005                     	;# 
   715     0006                     	;# 
   716     0007                     	;# 
   717     0008                     	;# 
   718     0009                     	;# 
   719     000A                     	;# 
   720     000B                     	;# 
   721     000C                     	;# 
   722     000D                     	;# 
   723     0011                     	;# 
   724     0012                     	;# 
   725     0013                     	;# 
   726     0014                     	;# 
   727     0015                     	;# 
   728     0016                     	;# 
   729     0016                     	;# 
   730     0017                     	;# 
   731     0018                     	;# 
   732     0019                     	;# 
   733     001A                     	;# 
   734     001B                     	;# 
   735     001C                     	;# 
   736     001E                     	;# 
   737     001F                     	;# 
   738     008C                     	;# 
   739     008D                     	;# 
   740     0091                     	;# 
   741     0092                     	;# 
   742     0093                     	;# 
   743     0094                     	;# 
   744     0095                     	;# 
   745     0096                     	;# 
   746     0097                     	;# 
   747     0098                     	;# 
   748     0099                     	;# 
   749     009A                     	;# 
   750     009B                     	;# 
   751     009B                     	;# 
   752     009C                     	;# 
   753     009D                     	;# 
   754     009E                     	;# 
   755     010C                     	;# 
   756     010D                     	;# 
   757     0111                     	;# 
   758     0112                     	;# 
   759     0113                     	;# 
   760     0114                     	;# 
   761     0115                     	;# 
   762     0116                     	;# 
   763     0117                     	;# 
   764     0118                     	;# 
   765     0119                     	;# 
   766     011A                     	;# 
   767     011B                     	;# 
   768     011D                     	;# 
   769     011E                     	;# 
   770     018C                     	;# 
   771     018D                     	;# 
   772     0191                     	;# 
   773     0191                     	;# 
   774     0192                     	;# 
   775     0193                     	;# 
   776     0193                     	;# 
   777     0193                     	;# 
   778     0194                     	;# 
   779     0195                     	;# 
   780     0196                     	;# 
   781     0199                     	;# 
   782     019A                     	;# 
   783     019B                     	;# 
   784     019B                     	;# 
   785     019B                     	;# 
   786     019B                     	;# 
   787     019C                     	;# 
   788     019C                     	;# 
   789     019D                     	;# 
   790     019E                     	;# 
   791     019F                     	;# 
   792     020C                     	;# 
   793     020D                     	;# 
   794     0211                     	;# 
   795     0211                     	;# 
   796     0212                     	;# 
   797     0212                     	;# 
   798     0213                     	;# 
   799     0213                     	;# 
   800     0214                     	;# 
   801     0214                     	;# 
   802     0215                     	;# 
   803     0215                     	;# 
   804     0215                     	;# 
   805     0216                     	;# 
   806     0216                     	;# 
   807     0217                     	;# 
   808     0217                     	;# 
   809     0219                     	;# 
   810     021A                     	;# 
   811     021B                     	;# 
   812     021C                     	;# 
   813     021D                     	;# 
   814     021E                     	;# 
   815     021F                     	;# 
   816     0291                     	;# 
   817     0291                     	;# 
   818     0292                     	;# 
   819     0293                     	;# 
   820     0294                     	;# 
   821     0295                     	;# 
   822     0295                     	;# 
   823     0296                     	;# 
   824     0298                     	;# 
   825     0298                     	;# 
   826     0299                     	;# 
   827     029A                     	;# 
   828     029B                     	;# 
   829     029C                     	;# 
   830     029C                     	;# 
   831     029D                     	;# 
   832     029E                     	;# 
   833     029E                     	;# 
   834     0311                     	;# 
   835     0311                     	;# 
   836     0312                     	;# 
   837     0313                     	;# 
   838     0318                     	;# 
   839     0318                     	;# 
   840     0319                     	;# 
   841     031A                     	;# 
   842     0394                     	;# 
   843     0395                     	;# 
   844     0396                     	;# 
   845     039A                     	;# 
   846     039C                     	;# 
   847     039D                     	;# 
   848     039E                     	;# 
   849     039F                     	;# 
   850     0415                     	;# 
   851     0416                     	;# 
   852     0417                     	;# 
   853     041C                     	;# 
   854     041D                     	;# 
   855     041E                     	;# 
   856     0FE4                     	;# 
   857     0FE5                     	;# 
   858     0FE6                     	;# 
   859     0FE7                     	;# 
   860     0FE8                     	;# 
   861     0FE9                     	;# 
   862     0FEA                     	;# 
   863     0FEB                     	;# 
   864     0FED                     	;# 
   865     0FEE                     	;# 
   866     0FEF                     	;# 
   867     0000                     	;# 
   868     0001                     	;# 
   869     0002                     	;# 
   870     0003                     	;# 
   871     0004                     	;# 
   872     0005                     	;# 
   873     0006                     	;# 
   874     0007                     	;# 
   875     0008                     	;# 
   876     0009                     	;# 
   877     000A                     	;# 
   878     000B                     	;# 
   879     000C                     	;# 
   880     000D                     	;# 
   881     0011                     	;# 
   882     0012                     	;# 
   883     0013                     	;# 
   884     0014                     	;# 
   885     0015                     	;# 
   886     0016                     	;# 
   887     0016                     	;# 
   888     0017                     	;# 
   889     0018                     	;# 
   890     0019                     	;# 
   891     001A                     	;# 
   892     001B                     	;# 
   893     001C                     	;# 
   894     001E                     	;# 
   895     001F                     	;# 
   896     008C                     	;# 
   897     008D                     	;# 
   898     0091                     	;# 
   899     0092                     	;# 
   900     0093                     	;# 
   901     0094                     	;# 
   902     0095                     	;# 
   903     0096                     	;# 
   904     0097                     	;# 
   905     0098                     	;# 
   906     0099                     	;# 
   907     009A                     	;# 
   908     009B                     	;# 
   909     009B                     	;# 
   910     009C                     	;# 
   911     009D                     	;# 
   912     009E                     	;# 
   913     010C                     	;# 
   914     010D                     	;# 
   915     0111                     	;# 
   916     0112                     	;# 
   917     0113                     	;# 
   918     0114                     	;# 
   919     0115                     	;# 
   920     0116                     	;# 
   921     0117                     	;# 
   922     0118                     	;# 
   923     0119                     	;# 
   924     011A                     	;# 
   925     011B                     	;# 
   926     011D                     	;# 
   927     011E                     	;# 
   928     018C                     	;# 
   929     018D                     	;# 
   930     0191                     	;# 
   931     0191                     	;# 
   932     0192                     	;# 
   933     0193                     	;# 
   934     0193                     	;# 
   935     0193                     	;# 
   936     0194                     	;# 
   937     0195                     	;# 
   938     0196                     	;# 
   939     0199                     	;# 
   940     019A                     	;# 
   941     019B                     	;# 
   942     019B                     	;# 
   943     019B                     	;# 
   944     019B                     	;# 
   945     019C                     	;# 
   946     019C                     	;# 
   947     019D                     	;# 
   948     019E                     	;# 
   949     019F                     	;# 
   950     020C                     	;# 
   951     020D                     	;# 
   952     0211                     	;# 
   953     0211                     	;# 
   954     0212                     	;# 
   955     0212                     	;# 
   956     0213                     	;# 
   957     0213                     	;# 
   958     0214                     	;# 
   959     0214                     	;# 
   960     0215                     	;# 
   961     0215                     	;# 
   962     0215                     	;# 
   963     0216                     	;# 
   964     0216                     	;# 
   965     0217                     	;# 
   966     0217                     	;# 
   967     0219                     	;# 
   968     021A                     	;# 
   969     021B                     	;# 
   970     021C                     	;# 
   971     021D                     	;# 
   972     021E                     	;# 
   973     021F                     	;# 
   974     0291                     	;# 
   975     0291                     	;# 
   976     0292                     	;# 
   977     0293                     	;# 
   978     0294                     	;# 
   979     0295                     	;# 
   980     0295                     	;# 
   981     0296                     	;# 
   982     0298                     	;# 
   983     0298                     	;# 
   984     0299                     	;# 
   985     029A                     	;# 
   986     029B                     	;# 
   987     029C                     	;# 
   988     029C                     	;# 
   989     029D                     	;# 
   990     029E                     	;# 
   991     029E                     	;# 
   992     0311                     	;# 
   993     0311                     	;# 
   994     0312                     	;# 
   995     0313                     	;# 
   996     0318                     	;# 
   997     0318                     	;# 
   998     0319                     	;# 
   999     031A                     	;# 
  1000     0394                     	;# 
  1001     0395                     	;# 
  1002     0396                     	;# 
  1003     039A                     	;# 
  1004     039C                     	;# 
  1005     039D                     	;# 
  1006     039E                     	;# 
  1007     039F                     	;# 
  1008     0415                     	;# 
  1009     0416                     	;# 
  1010     0417                     	;# 
  1011     041C                     	;# 
  1012     041D                     	;# 
  1013     041E                     	;# 
  1014     0FE4                     	;# 
  1015     0FE5                     	;# 
  1016     0FE6                     	;# 
  1017     0FE7                     	;# 
  1018     0FE8                     	;# 
  1019     0FE9                     	;# 
  1020     0FEA                     	;# 
  1021     0FEB                     	;# 
  1022     0FED                     	;# 
  1023     0FEE                     	;# 
  1024     0FEF                     	;# 
  1025                           
  1026 ;; Function _EUSART_DefaultFramingErrorHandler is unused but had its address taken
  1027     0000                     
  1028 ;; Function _EUSART_DefaultOverrunErrorHandler is unused but had its address taken
  1029     0000                     
  1030 ;; Function _EUSART_DefaultErrorHandler is unused but had its address taken
  1031     0000                     
  1032                           	psect	stringtext1
  1033     0800                     __pstringtext1:
  1034     0800                     _msg0:
  1035     0800  344C               	retlw	76
  1036     0801  342D               	retlw	45
  1037     0802  3445               	retlw	69
  1038     0803  3478               	retlw	120
  1039     0804  3469               	retlw	105
  1040     0805  3462               	retlw	98
  1041     0806  3465               	retlw	101
  1042     0807  3420               	retlw	32
  1043     0808  346C               	retlw	108
  1044     0809  3469               	retlw	105
  1045     080A  3473               	retlw	115
  1046     080B  3474               	retlw	116
  1047     080C  3461               	retlw	97
  1048     080D  342C               	retlw	44
  1049     080E  3420               	retlw	32
  1050     080F  3441               	retlw	65
  1051     0810  342D               	retlw	45
  1052     0811  3441               	retlw	65
  1053     0812  3467               	retlw	103
  1054     0813  3465               	retlw	101
  1055     0814  346E               	retlw	110
  1056     0815  3464               	retlw	100
  1057     0816  3461               	retlw	97
  1058     0817  342C               	retlw	44
  1059     0818  3420               	retlw	32
  1060     0819  3450               	retlw	80
  1061     081A  342D               	retlw	45
  1062     081B  3450               	retlw	80
  1063     081C  3472               	retlw	114
  1064     081D  346F               	retlw	111
  1065     081E  3478               	retlw	120
  1066     081F  3469               	retlw	105
  1067     0820  346D               	retlw	109
  1068     0821  346F               	retlw	111
  1069     0822  342C               	retlw	44
  1070     0823  3420               	retlw	32
  1071     0824  3452               	retlw	82
  1072     0825  342D               	retlw	45
  1073     0826  3441               	retlw	65
  1074     0827  3470               	retlw	112
  1075     0828  3461               	retlw	97
  1076     0829  3467               	retlw	103
  1077     082A  3461               	retlw	97
  1078     082B  3420               	retlw	32
  1079     082C  346C               	retlw	108
  1080     082D  3469               	retlw	105
  1081     082E  3473               	retlw	115
  1082     082F  3474               	retlw	116
  1083     0830  3461               	retlw	97
  1084     0831  3400               	retlw	0
  1085     0832                     __end_of_msg0:
  1086                           
  1087                           	psect	stringtext2
  1088     08D4                     __pstringtext2:
  1089     08D4                     _msg4:
  1090     08D4  3444               	retlw	68
  1091     08D5  3469               	retlw	105
  1092     08D6  3467               	retlw	103
  1093     08D7  3469               	retlw	105
  1094     08D8  3474               	retlw	116
  1095     08D9  3465               	retlw	101
  1096     08DA  3420               	retlw	32
  1097     08DB  346F               	retlw	111
  1098     08DC  3420               	retlw	32
  1099     08DD  346E               	retlw	110
  1100     08DE  346F               	retlw	111
  1101     08DF  346D               	retlw	109
  1102     08E0  3465               	retlw	101
  1103     08E1  343A               	retlw	58
  1104     08E2  3400               	retlw	0
  1105     08E3                     __end_of_msg4:
  1106                           
  1107                           	psect	stringtext3
  1108     0832                     __pstringtext3:
  1109     0832                     _msg6:
  1110     0832  3454               	retlw	84
  1111     0833  346F               	retlw	111
  1112     0834  3464               	retlw	100
  1113     0835  346F               	retlw	111
  1114     0836  3473               	retlw	115
  1115     0837  3420               	retlw	32
  1116     0838  346F               	retlw	111
  1117     0839  3473               	retlw	115
  1118     083A  3420               	retlw	32
  1119     083B  3461               	retlw	97
  1120     083C  3467               	retlw	103
  1121     083D  3465               	retlw	101
  1122     083E  346E               	retlw	110
  1123     083F  3464               	retlw	100
  1124     0840  3461               	retlw	97
  1125     0841  346D               	retlw	109
  1126     0842  3465               	retlw	101
  1127     0843  346E               	retlw	110
  1128     0844  3474               	retlw	116
  1129     0845  346F               	retlw	111
  1130     0846  3473               	retlw	115
  1131     0847  3420               	retlw	32
  1132     0848  3466               	retlw	102
  1133     0849  346F               	retlw	111
  1134     084A  3472               	retlw	114
  1135     084B  3461               	retlw	97
  1136     084C  346D               	retlw	109
  1137     084D  3420               	retlw	32
  1138     084E  3461               	retlw	97
  1139     084F  3474               	retlw	116
  1140     0850  3465               	retlw	101
  1141     0851  346E               	retlw	110
  1142     0852  3464               	retlw	100
  1143     0853  3469               	retlw	105
  1144     0854  3464               	retlw	100
  1145     0855  346F               	retlw	111
  1146     0856  3473               	retlw	115
  1147     0857  3400               	retlw	0
  1148     0858                     __end_of_msg6:
  1149                           
  1150                           	psect	stringtext4
  1151     0858                     __pstringtext4:
  1152     0858                     _msg5:
  1153     0858  344E               	retlw	78
  1154     0859  3461               	retlw	97
  1155     085A  346F               	retlw	111
  1156     085B  3420               	retlw	32
  1157     085C  3466               	retlw	102
  1158     085D  346F               	retlw	111
  1159     085E  3469               	retlw	105
  1160     085F  3420               	retlw	32
  1161     0860  3470               	retlw	112
  1162     0861  346F               	retlw	111
  1163     0862  3473               	retlw	115
  1164     0863  3473               	retlw	115
  1165     0864  3469               	retlw	105
  1166     0865  3476               	retlw	118
  1167     0866  3465               	retlw	101
  1168     0867  346C               	retlw	108
  1169     0868  3420               	retlw	32
  1170     0869  3461               	retlw	97
  1171     086A  3467               	retlw	103
  1172     086B  3465               	retlw	101
  1173     086C  346E               	retlw	110
  1174     086D  3464               	retlw	100
  1175     086E  3461               	retlw	97
  1176     086F  3472               	retlw	114
  1177     0870  3420               	retlw	32
  1178     0871  3428               	retlw	40
  1179     0872  346E               	retlw	110
  1180     0873  346F               	retlw	111
  1181     0874  346D               	retlw	109
  1182     0875  3465               	retlw	101
  1183     0876  3420               	retlw	32
  1184     0877  3476               	retlw	118
  1185     0878  3461               	retlw	97
  1186     0879  347A               	retlw	122
  1187     087A  3469               	retlw	105
  1188     087B  346F               	retlw	111
  1189     087C  3429               	retlw	41
  1190     087D  3400               	retlw	0
  1191     087E                     __end_of_msg5:
  1192                           
  1193                           	psect	stringtext5
  1194     087E                     __pstringtext5:
  1195     087E                     _msg7:
  1196     087E  344E               	retlw	78
  1197     087F  3461               	retlw	97
  1198     0880  346F               	retlw	111
  1199     0881  3420               	retlw	32
  1200     0882  3464               	retlw	100
  1201     0883  3469               	retlw	105
  1202     0884  3473               	retlw	115
  1203     0885  3470               	retlw	112
  1204     0886  346F               	retlw	111
  1205     0887  346E               	retlw	110
  1206     0888  3465               	retlw	101
  1207     0889  346D               	retlw	109
  1208     088A  346F               	retlw	111
  1209     088B  3473               	retlw	115
  1210     088C  3420               	retlw	32
  1211     088D  3464               	retlw	100
  1212     088E  3465               	retlw	101
  1213     088F  3420               	retlw	32
  1214     0890  346D               	retlw	109
  1215     0891  3461               	retlw	97
  1216     0892  3469               	retlw	105
  1217     0893  3473               	retlw	115
  1218     0894  3420               	retlw	32
  1219     0895  3461               	retlw	97
  1220     0896  3467               	retlw	103
  1221     0897  3465               	retlw	101
  1222     0898  346E               	retlw	110
  1223     0899  3464               	retlw	100
  1224     089A  3461               	retlw	97
  1225     089B  346D               	retlw	109
  1226     089C  3465               	retlw	101
  1227     089D  346E               	retlw	110
  1228     089E  3474               	retlw	116
  1229     089F  346F               	retlw	111
  1230     08A0  3473               	retlw	115
  1231     08A1  3400               	retlw	0
  1232     08A2                     __end_of_msg7:
  1233                           
  1234                           	psect	stringtext6
  1235     08A2                     __pstringtext6:
  1236     08A2                     _msg2:
  1237     08A2  344C               	retlw	76
  1238     08A3  3469               	retlw	105
  1239     08A4  3473               	retlw	115
  1240     08A5  3474               	retlw	116
  1241     08A6  3461               	retlw	97
  1242     08A7  3420               	retlw	32
  1243     08A8  3464               	retlw	100
  1244     08A9  3465               	retlw	101
  1245     08AA  3420               	retlw	32
  1246     08AB  3461               	retlw	97
  1247     08AC  3467               	retlw	103
  1248     08AD  3465               	retlw	101
  1249     08AE  346E               	retlw	110
  1250     08AF  3464               	retlw	100
  1251     08B0  3461               	retlw	97
  1252     08B1  346D               	retlw	109
  1253     08B2  3465               	retlw	101
  1254     08B3  346E               	retlw	110
  1255     08B4  3474               	retlw	116
  1256     08B5  346F               	retlw	111
  1257     08B6  3473               	retlw	115
  1258     08B7  3420               	retlw	32
  1259     08B8  3476               	retlw	118
  1260     08B9  3461               	retlw	97
  1261     08BA  347A               	retlw	122
  1262     08BB  3469               	retlw	105
  1263     08BC  3461               	retlw	97
  1264     08BD  3400               	retlw	0
  1265     08BE                     __end_of_msg2:
  1266                           
  1267                           	psect	stringtext7
  1268     08BE                     __pstringtext7:
  1269     08BE                     _msg1:
  1270     08BE  344C               	retlw	76
  1271     08BF  3469               	retlw	105
  1272     08C0  3473               	retlw	115
  1273     08C1  3474               	retlw	116
  1274     08C2  3461               	retlw	97
  1275     08C3  3420               	retlw	32
  1276     08C4  3464               	retlw	100
  1277     08C5  3465               	retlw	101
  1278     08C6  3420               	retlw	32
  1279     08C7  3461               	retlw	97
  1280     08C8  3467               	retlw	103
  1281     08C9  3465               	retlw	101
  1282     08CA  346E               	retlw	110
  1283     08CB  3464               	retlw	100
  1284     08CC  3461               	retlw	97
  1285     08CD  346D               	retlw	109
  1286     08CE  3465               	retlw	101
  1287     08CF  346E               	retlw	110
  1288     08D0  3474               	retlw	116
  1289     08D1  346F               	retlw	111
  1290     08D2  3473               	retlw	115
  1291     08D3  3400               	retlw	0
  1292     08D4                     __end_of_msg1:
  1293                           
  1294                           	psect	stringtext8
  1295     08E3                     __pstringtext8:
  1296     08E3                     _msg3:
  1297     08E3  3450               	retlw	80
  1298     08E4  3472               	retlw	114
  1299     08E5  346F               	retlw	111
  1300     08E6  3478               	retlw	120
  1301     08E7  3469               	retlw	105
  1302     08E8  346D               	retlw	109
  1303     08E9  346F               	retlw	111
  1304     08EA  343A               	retlw	58
  1305     08EB  3400               	retlw	0
  1306     08EC                     __end_of_msg3:
  1307     0003                     _STATUSbits	set	3
  1308     0011                     _PIR1bits	set	17
  1309     000B                     _INTCONbits	set	11
  1310     0095                     _OPTION_REGbits	set	149
  1311     008D                     _TRISB	set	141
  1312     008C                     _TRISA	set	140
  1313     0097                     _WDTCON	set	151
  1314     0098                     _OSCTUNE	set	152
  1315     0099                     _OSCCON	set	153
  1316     04D6                     _PLLR	set	1238
  1317     011E                     _APFCON1	set	286
  1318     011D                     _APFCON0	set	285
  1319     010D                     _LATB	set	269
  1320     010C                     _LATA	set	268
  1321     0116                     _BORCON	set	278
  1322     0191                     _EEADR	set	401
  1323     0193                     _EEDATA	set	403
  1324     0195                     _EECON1	set	405
  1325     018C                     _ANSELA	set	396
  1326     018D                     _ANSELB	set	397
  1327     019A                     _TXREG	set	410
  1328     0199                     _RCREG	set	409
  1329     019D                     _RCSTAbits	set	413
  1330     019E                     _TXSTAbits	set	414
  1331     019C                     _SPBRGH	set	412
  1332     019B                     _SPBRGL	set	411
  1333     019E                     _TXSTA	set	414
  1334     019D                     _RCSTA	set	413
  1335     019F                     _BAUDCON	set	415
  1336     0196                     _EECON2	set	406
  1337     0193                     _EEDATL	set	403
  1338     0194                     _EEDATH	set	404
  1339     0195                     _EECON1bits	set	405
  1340     0192                     _EEADRH	set	402
  1341     0191                     _EEADRL	set	401
  1342     020C                     _WPUA	set	524
  1343     020D                     _WPUB	set	525
  1344                           
  1345                           	psect	cinit
  1346     07F4                     start_initialization:	
  1347                           ; #config settings
  1348                           
  1349     07F4                     __initialization:
  1350                           
  1351                           ; Clear objects allocated to COMMON
  1352     07F4  01FD               	clrf	__pbssCOMMON& (0+127)
  1353                           
  1354                           ; Clear objects allocated to BANK0
  1355     07F5  3020               	movlw	low __pbssBANK0
  1356     07F6  0084               	movwf	4
  1357     07F7  3000               	movlw	high __pbssBANK0
  1358     07F8  0085               	movwf	5
  1359     07F9  301E               	movlw	30
  1360     07FA  3184  2470  3187   	fcall	clear_ram0
  1361     07FD                     end_of_initialization:	
  1362                           ;End of C runtime variable initialization code
  1363                           
  1364     07FD                     __end_of__initialization:
  1365     07FD  0020               	movlb	0
  1366     07FE  3185  2D64         	ljmp	_main	;jump to C main() function
  1367                           
  1368                           	psect	bssEEDATA
  1369     0000                     __pbssEEDATA:
  1370     0000                     _ee:
  1371     0000  0000               	db	0
  1372     0001  0000               	db	0
  1373     0002  0000               	db	0
  1374     0003  0000               	db	0
  1375     0004  0000               	db	0
  1376     0005  0000               	db	0
  1377     0006  0000               	db	0
  1378     0007  0000               	db	0
  1379     0008  0000               	db	0
  1380     0009  0000               	db	0
  1381     000A  0000               	db	0
  1382     000B  0000               	db	0
  1383     000C  0000               	db	0
  1384     000D  0000               	db	0
  1385     000E  0000               	db	0
  1386     000F  0000               	db	0
  1387     0010  0000               	db	0
  1388     0011  0000               	db	0
  1389     0012  0000               	db	0
  1390     0013  0000               	db	0
  1391     0014  0000               	db	0
  1392     0015  0000               	db	0
  1393     0016  0000               	db	0
  1394     0017  0000               	db	0
  1395     0018  0000               	db	0
  1396     0019  0000               	db	0
  1397     001A  0000               	db	0
  1398     001B  0000               	db	0
  1399     001C  0000               	db	0
  1400     001D  0000               	db	0
  1401     001E  0000               	db	0
  1402     001F  0000               	db	0
  1403     0020  0000               	db	0
  1404     0021  0000               	db	0
  1405     0022  0000               	db	0
  1406     0023  0000               	db	0
  1407     0024  0000               	db	0
  1408     0025  0000               	db	0
  1409     0026  0000               	db	0
  1410     0027  0000               	db	0
  1411     0028  0000               	db	0
  1412     0029  0000               	db	0
  1413     002A  0000               	db	0
  1414     002B  0000               	db	0
  1415     002C  0000               	db	0
  1416     002D  0000               	db	0
  1417     002E  0000               	db	0
  1418     002F  0000               	db	0
  1419     0030  0000               	db	0
  1420     0031  0000               	db	0
  1421     0032  0000               	db	0
  1422     0033  0000               	db	0
  1423     0034  0000               	db	0
  1424     0035  0000               	db	0
  1425     0036  0000               	db	0
  1426     0037  0000               	db	0
  1427     0038  0000               	db	0
  1428     0039  0000               	db	0
  1429     003A  0000               	db	0
  1430     003B  0000               	db	0
  1431     003C  0000               	db	0
  1432     003D  0000               	db	0
  1433     003E  0000               	db	0
  1434     003F  0000               	db	0
  1435     0040  0000               	db	0
  1436     0041  0000               	db	0
  1437     0042  0000               	db	0
  1438     0043  0000               	db	0
  1439     0044  0000               	db	0
  1440     0045  0000               	db	0
  1441     0046  0000               	db	0
  1442     0047  0000               	db	0
  1443     0048  0000               	db	0
  1444     0049  0000               	db	0
  1445     004A  0000               	db	0
  1446     004B  0000               	db	0
  1447     004C  0000               	db	0
  1448     004D  0000               	db	0
  1449     004E  0000               	db	0
  1450     004F  0000               	db	0
  1451     0050  0000               	db	0
  1452     0051  0000               	db	0
  1453     0052  0000               	db	0
  1454     0053  0000               	db	0
  1455     0054  0000               	db	0
  1456     0055  0000               	db	0
  1457     0056  0000               	db	0
  1458     0057  0000               	db	0
  1459     0058  0000               	db	0
  1460     0059  0000               	db	0
  1461     005A  0000               	db	0
  1462     005B  0000               	db	0
  1463     005C  0000               	db	0
  1464     005D  0000               	db	0
  1465     005E  0000               	db	0
  1466     005F  0000               	db	0
  1467     0060  0000               	db	0
  1468     0061  0000               	db	0
  1469     0062  0000               	db	0
  1470     0063  0000               	db	0
  1471     0064  0000               	db	0
  1472     0065  0000               	db	0
  1473     0066  0000               	db	0
  1474     0067  0000               	db	0
  1475     0068  0000               	db	0
  1476     0069  0000               	db	0
  1477     006A  0000               	db	0
  1478     006B  0000               	db	0
  1479     006C  0000               	db	0
  1480     006D  0000               	db	0
  1481     006E  0000               	db	0
  1482     006F  0000               	db	0
  1483     0070  0000               	db	0
  1484     0071  0000               	db	0
  1485     0072  0000               	db	0
  1486     0073  0000               	db	0
  1487     0074  0000               	db	0
  1488     0075  0000               	db	0
  1489     0076  0000               	db	0
  1490     0077  0000               	db	0
  1491     0078  0000               	db	0
  1492     0079  0000               	db	0
  1493     007A  0000               	db	0
  1494     007B  0000               	db	0
  1495     007C  0000               	db	0
  1496     007D  0000               	db	0
  1497     007E  0000               	db	0
  1498     007F  0000               	db	0
  1499     0080  0000               	db	0
  1500     0081  0000               	db	0
  1501     0082  0000               	db	0
  1502     0083  0000               	db	0
  1503     0084  0000               	db	0
  1504     0085  0000               	db	0
  1505     0086  0000               	db	0
  1506     0087  0000               	db	0
  1507     0088  0000               	db	0
  1508     0089  0000               	db	0
  1509     008A  0000               	db	0
  1510     008B  0000               	db	0
  1511     008C  0000               	db	0
  1512     008D  0000               	db	0
  1513     008E  0000               	db	0
  1514     008F  0000               	db	0
  1515     0090  0000               	db	0
  1516     0091  0000               	db	0
  1517     0092  0000               	db	0
  1518     0093  0000               	db	0
  1519     0094  0000               	db	0
  1520     0095  0000               	db	0
  1521     0096  0000               	db	0
  1522     0097  0000               	db	0
  1523     0098  0000               	db	0
  1524     0099  0000               	db	0
  1525     009A  0000               	db	0
  1526     009B  0000               	db	0
  1527     009C  0000               	db	0
  1528     009D  0000               	db	0
  1529     009E  0000               	db	0
  1530     009F  0000               	db	0
  1531     00A0  0000               	db	0
  1532     00A1  0000               	db	0
  1533     00A2  0000               	db	0
  1534     00A3  0000               	db	0
  1535     00A4  0000               	db	0
  1536     00A5  0000               	db	0
  1537     00A6  0000               	db	0
  1538     00A7  0000               	db	0
  1539     00A8  0000               	db	0
  1540     00A9  0000               	db	0
  1541     00AA  0000               	db	0
  1542     00AB  0000               	db	0
  1543     00AC  0000               	db	0
  1544     00AD  0000               	db	0
  1545     00AE  0000               	db	0
  1546     00AF  0000               	db	0
  1547     00B0  0000               	db	0
  1548     00B1  0000               	db	0
  1549     00B2  0000               	db	0
  1550     00B3  0000               	db	0
  1551     00B4  0000               	db	0
  1552     00B5  0000               	db	0
  1553     00B6  0000               	db	0
  1554     00B7  0000               	db	0
  1555     00B8  0000               	db	0
  1556     00B9  0000               	db	0
  1557     00BA  0000               	db	0
  1558     00BB  0000               	db	0
  1559     00BC  0000               	db	0
  1560     00BD  0000               	db	0
  1561     00BE  0000               	db	0
  1562     00BF  0000               	db	0
  1563     00C0  0000               	db	0
  1564     00C1  0000               	db	0
  1565     00C2  0000               	db	0
  1566     00C3  0000               	db	0
  1567     00C4  0000               	db	0
  1568     00C5  0000               	db	0
  1569     00C6  0000               	db	0
  1570     00C7  0000               	db	0
  1571     00C8  0000               	db	0
  1572     00C9  0000               	db	0
  1573     00CA  0000               	db	0
  1574     00CB  0000               	db	0
  1575     00CC  0000               	db	0
  1576     00CD  0000               	db	0
  1577     00CE  0000               	db	0
  1578     00CF  0000               	db	0
  1579     00D0  0000               	db	0
  1580     00D1  0000               	db	0
  1581     00D2  0000               	db	0
  1582     00D3  0000               	db	0
  1583     00D4  0000               	db	0
  1584     00D5  0000               	db	0
  1585     00D6  0000               	db	0
  1586     00D7  0000               	db	0
  1587     00D8  0000               	db	0
  1588     00D9  0000               	db	0
  1589     00DA  0000               	db	0
  1590     00DB  0000               	db	0
  1591                           
  1592                           	psect	bssCOMMON
  1593     007D                     __pbssCOMMON:
  1594     007D                     _countRx:
  1595     007D                     	ds	1
  1596                           
  1597                           	psect	bssBANK0
  1598     0020                     __pbssBANK0:
  1599     0020                     recebeGuardaNome@nameRx:
  1600     0020                     	ds	21
  1601     0035                     _EUSART_ErrorHandler:
  1602     0035                     	ds	2
  1603     0037                     _EUSART_OverrunErrorHandler:
  1604     0037                     	ds	2
  1605     0039                     _EUSART_FramingErrorHandler:
  1606     0039                     	ds	2
  1607     003B                     _bufferRx:
  1608     003B                     	ds	1
  1609     003C                     _countName:
  1610     003C                     	ds	1
  1611     003D                     _eusartRxLastError:
  1612     003D                     	ds	1
  1613                           
  1614                           	psect	clrtext
  1615     0470                     clear_ram0:	
  1616                           ;	Called with FSR0 containing the base address, and
  1617                           ;	WREG with the size to clear
  1618                           
  1619     0470  0064               	clrwdt	;clear the watchdog before getting into this loop
  1620     0471                     clrloop0:
  1621     0471  0180               	clrf	0	;clear RAM location pointed to by FSR
  1622     0472  3101               	addfsr 0,1
  1623     0473  0B89               	decfsz	9,f	;Have we reached the end of clearing yet?
  1624     0474  2C71               	goto	clrloop0	;have we reached the end yet?
  1625     0475  3400               	retlw	0	;all done for this memory range, return
  1626                           
  1627                           	psect	cstackCOMMON
  1628     0070                     __pcstackCOMMON:
  1629     0070                     ?_EUSART_SetFramingErrorHandler:
  1630     0070                     ?_EUSART_SetOverrunErrorHandler:	
  1631                           ; 1 bytes @ 0x0
  1632                           
  1633     0070                     ?_EUSART_SetErrorHandler:	
  1634                           ; 1 bytes @ 0x0
  1635                           
  1636     0070                     ?_PIN_MANAGER_Initialize:	
  1637                           ; 1 bytes @ 0x0
  1638                           
  1639     0070                     ??_PIN_MANAGER_Initialize:	
  1640                           ; 1 bytes @ 0x0
  1641                           
  1642     0070                     ?_OSCILLATOR_Initialize:	
  1643                           ; 1 bytes @ 0x0
  1644                           
  1645     0070                     ??_OSCILLATOR_Initialize:	
  1646                           ; 1 bytes @ 0x0
  1647                           
  1648     0070                     ?_WDT_Initialize:	
  1649                           ; 1 bytes @ 0x0
  1650                           
  1651     0070                     ??_WDT_Initialize:	
  1652                           ; 1 bytes @ 0x0
  1653                           
  1654     0070                     ?_EUSART_Initialize:	
  1655                           ; 1 bytes @ 0x0
  1656                           
  1657     0070                     ?_EUSART_is_rx_ready:	
  1658                           ; 1 bytes @ 0x0
  1659                           
  1660     0070                     ??_EUSART_is_rx_ready:	
  1661                           ; 1 bytes @ 0x0
  1662                           
  1663     0070                     ?_EUSART_Read:	
  1664                           ; 1 bytes @ 0x0
  1665                           
  1666     0070                     ??_EUSART_Read:	
  1667                           ; 1 bytes @ 0x0
  1668                           
  1669     0070                     ?_EUSART_Write:	
  1670                           ; 1 bytes @ 0x0
  1671                           
  1672     0070                     ??_EUSART_Write:	
  1673                           ; 1 bytes @ 0x0
  1674                           
  1675     0070                     ?_SYSTEM_Initialize:	
  1676                           ; 1 bytes @ 0x0
  1677                           
  1678     0070                     ?_enviaNomes:	
  1679                           ; 1 bytes @ 0x0
  1680                           
  1681     0070                     ?_recebeGuardaNome:	
  1682                           ; 1 bytes @ 0x0
  1683                           
  1684     0070                     ?_analisaRx:	
  1685                           ; 1 bytes @ 0x0
  1686                           
  1687     0070                     ?_main:	
  1688                           ; 1 bytes @ 0x0
  1689                           
  1690     0070                     ?___eecpymem:	
  1691                           ; 1 bytes @ 0x0
  1692                           
  1693     0070                     ?___memcpyee:	
  1694                           ; 1 bytes @ 0x0
  1695                           
  1696     0070                     ?___eetoc:	
  1697                           ; 1 bytes @ 0x0
  1698                           
  1699     0070                     ?___bmul:	
  1700                           ; 1 bytes @ 0x0
  1701                           
  1702     0070                     EUSART_Write@txData:	
  1703                           ; 1 bytes @ 0x0
  1704                           
  1705     0070                     ___eecpymem@from:	
  1706                           ; 1 bytes @ 0x0
  1707                           
  1708     0070                     ___memcpyee@from:	
  1709                           ; 1 bytes @ 0x0
  1710                           
  1711     0070                     ___bmul@multiplicand:	
  1712                           ; 1 bytes @ 0x0
  1713                           
  1714     0070                     EUSART_SetFramingErrorHandler@interruptHandler:	
  1715                           ; 1 bytes @ 0x0
  1716                           
  1717     0070                     EUSART_SetOverrunErrorHandler@interruptHandler:	
  1718                           ; 2 bytes @ 0x0
  1719                           
  1720     0070                     EUSART_SetErrorHandler@interruptHandler:	
  1721                           ; 2 bytes @ 0x0
  1722                           
  1723                           
  1724                           ; 2 bytes @ 0x0
  1725     0070                     	ds	1
  1726     0071                     ?_enviaMsg:
  1727     0071                     ??___bmul:	
  1728                           ; 1 bytes @ 0x1
  1729                           
  1730     0071                     ___eecpymem@size:	
  1731                           ; 1 bytes @ 0x1
  1732                           
  1733     0071                     ___memcpyee@size:	
  1734                           ; 1 bytes @ 0x1
  1735                           
  1736     0071                     enviaMsg@msg:	
  1737                           ; 1 bytes @ 0x1
  1738                           
  1739                           
  1740                           ; 2 bytes @ 0x1
  1741     0071                     	ds	1
  1742     0072                     ??_EUSART_SetFramingErrorHandler:
  1743     0072                     ??_EUSART_SetOverrunErrorHandler:	
  1744                           ; 1 bytes @ 0x2
  1745                           
  1746     0072                     ??_EUSART_SetErrorHandler:	
  1747                           ; 1 bytes @ 0x2
  1748                           
  1749     0072                     ??_EUSART_Initialize:	
  1750                           ; 1 bytes @ 0x2
  1751                           
  1752     0072                     ??_SYSTEM_Initialize:	
  1753                           ; 1 bytes @ 0x2
  1754                           
  1755     0072                     ??___eecpymem:	
  1756                           ; 1 bytes @ 0x2
  1757                           
  1758     0072                     ??___memcpyee:	
  1759                           ; 1 bytes @ 0x2
  1760                           
  1761     0072                     ___bmul@product:	
  1762                           ; 1 bytes @ 0x2
  1763                           
  1764                           
  1765                           ; 1 bytes @ 0x2
  1766     0072                     	ds	1
  1767     0073                     ??_enviaMsg:
  1768     0073                     ___bmul@multiplier:	
  1769                           ; 1 bytes @ 0x3
  1770                           
  1771                           
  1772                           ; 1 bytes @ 0x3
  1773     0073                     	ds	1
  1774     0074                     ___eecpymem@cp:
  1775     0074                     ___memcpyee@ptr:	
  1776                           ; 1 bytes @ 0x4
  1777                           
  1778                           
  1779                           ; 1 bytes @ 0x4
  1780     0074                     	ds	1
  1781     0075                     ___eecpymem@to:
  1782     0075                     ___memcpyee@to:	
  1783                           ; 1 bytes @ 0x5
  1784                           
  1785                           
  1786                           ; 1 bytes @ 0x5
  1787     0075                     	ds	1
  1788     0076                     ??___eetoc:
  1789     0076                     ?___ctoee:	
  1790                           ; 1 bytes @ 0x6
  1791                           
  1792     0076                     enviaMsg@i:	
  1793                           ; 1 bytes @ 0x6
  1794                           
  1795     0076                     ___eetoc@addr:	
  1796                           ; 1 bytes @ 0x6
  1797                           
  1798     0076                     ___ctoee@data:	
  1799                           ; 1 bytes @ 0x6
  1800                           
  1801                           
  1802                           ; 1 bytes @ 0x6
  1803     0076                     	ds	1
  1804     0077                     ??___ctoee:
  1805     0077                     ___eetoc@data:	
  1806                           ; 1 bytes @ 0x7
  1807                           
  1808     0077                     ___ctoee@addr:	
  1809                           ; 1 bytes @ 0x7
  1810                           
  1811                           
  1812                           ; 1 bytes @ 0x7
  1813     0077                     	ds	1
  1814     0078                     ??_enviaNomes:
  1815     0078                     ??_recebeGuardaNome:	
  1816                           ; 1 bytes @ 0x8
  1817                           
  1818                           
  1819                           ; 1 bytes @ 0x8
  1820     0078                     	ds	1
  1821     0079                     recebeGuardaNome@rxChar:
  1822                           
  1823                           ; 1 bytes @ 0x9
  1824     0079                     	ds	1
  1825     007A                     recebeGuardaNome@countByte:
  1826                           
  1827                           ; 1 bytes @ 0xA
  1828     007A                     	ds	1
  1829     007B                     ??_analisaRx:
  1830                           
  1831                           ; 1 bytes @ 0xB
  1832     007B                     	ds	1
  1833     007C                     ??_main:
  1834     007C                     main@rxChar:	
  1835                           ; 1 bytes @ 0xC
  1836                           
  1837                           
  1838                           ; 1 bytes @ 0xC
  1839     007C                     	ds	1
  1840                           
  1841                           	psect	cstackBANK0
  1842     003E                     __pcstackBANK0:
  1843     003E                     enviaNomes@j:
  1844                           
  1845                           ; 2 bytes @ 0x0
  1846     003E                     	ds	2
  1847     0040                     enviaNomes@j_411:
  1848                           
  1849                           ; 2 bytes @ 0x2
  1850     0040                     	ds	2
  1851     0042                     enviaNomes@i:
  1852                           
  1853                           ; 2 bytes @ 0x4
  1854     0042                     	ds	2
  1855     0044                     analisaRx@j:
  1856                           
  1857                           ; 2 bytes @ 0x6
  1858     0044                     	ds	2
  1859     0046                     analisaRx@i_424:
  1860                           
  1861                           ; 2 bytes @ 0x8
  1862     0046                     	ds	2
  1863     0048                     analisaRx@i:
  1864                           
  1865                           ; 2 bytes @ 0xA
  1866     0048                     	ds	2
  1867                           
  1868                           	psect	maintext
  1869     0564                     __pmaintext:	
  1870 ;;
  1871 ;;Main: autosize = 0, tempsize = 0, incstack = 0, save=0
  1872 ;;
  1873 ;; *************** function _main *****************
  1874 ;; Defined at:
  1875 ;;		line 312 in file "main.c"
  1876 ;; Parameters:    Size  Location     Type
  1877 ;;		None
  1878 ;; Auto vars:     Size  Location     Type
  1879 ;;  rxChar          1   12[COMMON] unsigned char 
  1880 ;; Return value:  Size  Location     Type
  1881 ;;                  1    wreg      void 
  1882 ;; Registers used:
  1883 ;;		wreg, fsr0l, fsr0h, fsr1l, fsr1h, status,2, status,0, pclath, cstack
  1884 ;; Tracked objects:
  1885 ;;		On entry : B1F/0
  1886 ;;		On exit  : 0/0
  1887 ;;		Unchanged: 0/0
  1888 ;; Data sizes:     COMMON   BANK0   BANK1   BANK2   BANK3   BANK4
  1889 ;;      Params:         0       0       0       0       0       0
  1890 ;;      Locals:         1       0       0       0       0       0
  1891 ;;      Temps:          0       0       0       0       0       0
  1892 ;;      Totals:         1       0       0       0       0       0
  1893 ;;Total ram usage:        1 bytes
  1894 ;; Hardware stack levels required when called: 4
  1895 ;; This function calls:
  1896 ;;		_EUSART_Read
  1897 ;;		_EUSART_is_rx_ready
  1898 ;;		_SYSTEM_Initialize
  1899 ;;		_analisaRx
  1900 ;; This function is called by:
  1901 ;;		Startup code after reset
  1902 ;; This function uses a non-reentrant model
  1903 ;;
  1904                           
  1905     0564                     _main:	
  1906                           ;psect for function _main
  1907                           
  1908     0564                     l1667:	
  1909                           ;incstack = 0
  1910                           ; Regs used in _main: [wreg-fsr1h+status,2+status,0+pclath+cstack]
  1911                           
  1912                           
  1913                           ;main.c: 315:     SYSTEM_Initialize();
  1914     0564  3184  24A1  3185   	fcall	_SYSTEM_Initialize
  1915     0567                     l298:	
  1916                           ;main.c: 332:     while (1)
  1917                           
  1918                           
  1919                           ;main.c: 333:     {;main.c: 334:         if (EUSART_is_rx_ready()) {
  1920     0567  3184  2459  3185   	fcall	_EUSART_is_rx_ready
  1921     056A  3A00               	xorlw	0
  1922     056B  1903               	skipnz
  1923     056C  2D6E               	goto	u911
  1924     056D  2D6F               	goto	u910
  1925     056E                     u911:
  1926     056E  2D67               	goto	l298
  1927     056F                     u910:
  1928     056F                     l1669:
  1929                           
  1930                           ;main.c: 335:             uint8_t rxChar = EUSART_Read();
  1931     056F  3184  24AE  3185   	fcall	_EUSART_Read
  1932     0572  00FC               	movwf	main@rxChar
  1933     0573                     l1671:
  1934                           
  1935                           ;main.c: 336:             if (rxChar == 0x4C || rxChar == 0x41 || rxChar == 0x50 || rxCh
      +                          ar == 0x52) {
  1936     0573  304C               	movlw	76
  1937     0574  067C               	xorwf	main@rxChar,w
  1938     0575  1903               	btfsc	3,2
  1939     0576  2D78               	goto	u921
  1940     0577  2D79               	goto	u920
  1941     0578                     u921:
  1942     0578  2D8B               	goto	l1679
  1943     0579                     u920:
  1944     0579                     l1673:
  1945     0579  3041               	movlw	65
  1946     057A  067C               	xorwf	main@rxChar,w
  1947     057B  1903               	btfsc	3,2
  1948     057C  2D7E               	goto	u931
  1949     057D  2D7F               	goto	u930
  1950     057E                     u931:
  1951     057E  2D8B               	goto	l1679
  1952     057F                     u930:
  1953     057F                     l1675:
  1954     057F  3050               	movlw	80
  1955     0580  067C               	xorwf	main@rxChar,w
  1956     0581  1903               	btfsc	3,2
  1957     0582  2D84               	goto	u941
  1958     0583  2D85               	goto	u940
  1959     0584                     u941:
  1960     0584  2D8B               	goto	l1679
  1961     0585                     u940:
  1962     0585                     l1677:
  1963     0585  3052               	movlw	82
  1964     0586  067C               	xorwf	main@rxChar,w
  1965     0587  1D03               	btfss	3,2
  1966     0588  2D8A               	goto	u951
  1967     0589  2D8B               	goto	u950
  1968     058A                     u951:
  1969     058A  2D8F               	goto	l1681
  1970     058B                     u950:
  1971     058B                     l1679:
  1972                           
  1973                           ;main.c: 337:                 bufferRx = rxChar;
  1974     058B  087C               	movf	main@rxChar,w
  1975     058C  0020               	movlb	0	; select bank0
  1976     058D  00BB               	movwf	_bufferRx
  1977                           
  1978                           ;main.c: 338:             }
  1979     058E  2D67               	goto	l298
  1980     058F                     l1681:
  1981     058F  300D               	movlw	13
  1982     0590  067C               	xorwf	main@rxChar,w
  1983     0591  1D03               	btfss	3,2
  1984     0592  2D94               	goto	u961
  1985     0593  2D95               	goto	u960
  1986     0594                     u961:
  1987     0594  2D99               	goto	l299
  1988     0595                     u960:
  1989     0595                     l1683:
  1990                           
  1991                           ;main.c: 340:                 analisaRx();
  1992     0595  3186  26F6  3185   	fcall	_analisaRx
  1993     0598  2D67               	goto	l298
  1994     0599                     l299:	
  1995                           ;main.c: 342:         }
  1996                           
  1997     0599  2D67               	goto	l298
  1998     059A  3180  2802         	ljmp	start
  1999     059C                     __end_of_main:
  2000                           
  2001                           	psect	text1
  2002     06F6                     __ptext1:	
  2003 ;; *************** function _analisaRx *****************
  2004 ;; Defined at:
  2005 ;;		line 260 in file "main.c"
  2006 ;; Parameters:    Size  Location     Type
  2007 ;;		None
  2008 ;; Auto vars:     Size  Location     Type
  2009 ;;  j               2    6[BANK0 ] int 
  2010 ;;  i               2    8[BANK0 ] int 
  2011 ;;  i               2   10[BANK0 ] int 
  2012 ;; Return value:  Size  Location     Type
  2013 ;;                  1    wreg      void 
  2014 ;; Registers used:
  2015 ;;		wreg, fsr0l, fsr0h, fsr1l, fsr1h, status,2, status,0, pclath, cstack
  2016 ;; Tracked objects:
  2017 ;;		On entry : 0/0
  2018 ;;		On exit  : 0/0
  2019 ;;		Unchanged: 0/0
  2020 ;; Data sizes:     COMMON   BANK0   BANK1   BANK2   BANK3   BANK4
  2021 ;;      Params:         0       0       0       0       0       0
  2022 ;;      Locals:         0       6       0       0       0       0
  2023 ;;      Temps:          1       0       0       0       0       0
  2024 ;;      Totals:         1       6       0       0       0       0
  2025 ;;Total ram usage:        7 bytes
  2026 ;; Hardware stack levels used: 1
  2027 ;; Hardware stack levels required when called: 3
  2028 ;; This function calls:
  2029 ;;		_EUSART_Write
  2030 ;;		___bmul
  2031 ;;		___ctoee
  2032 ;;		___eetoc
  2033 ;;		_enviaMsg
  2034 ;;		_enviaNomes
  2035 ;;		_recebeGuardaNome
  2036 ;; This function is called by:
  2037 ;;		_main
  2038 ;; This function uses a non-reentrant model
  2039 ;;
  2040                           
  2041     06F6                     _analisaRx:	
  2042                           ;psect for function _analisaRx
  2043                           
  2044     06F6                     l1597:	
  2045                           ;incstack = 0
  2046                           ; Regs used in _analisaRx: [wreg-fsr1h+status,2+status,0+pclath+cstack]
  2047                           
  2048                           
  2049                           ;main.c: 261:     if(bufferRx == 0x4C){
  2050     06F6  304C               	movlw	76
  2051     06F7  0020               	movlb	0	; select bank0
  2052     06F8  063B               	xorwf	_bufferRx,w
  2053     06F9  1D03               	btfss	3,2
  2054     06FA  2EFC               	goto	u801
  2055     06FB  2EFD               	goto	u800
  2056     06FC                     u801:
  2057     06FC  2F0C               	goto	l1605
  2058     06FD                     u800:
  2059     06FD                     l1599:
  2060                           
  2061                           ;main.c: 262:         enviaMsg(msg1);
  2062     06FD  30BE               	movlw	low (_msg1| (0+32768))
  2063     06FE  00F1               	movwf	enviaMsg@msg
  2064     06FF  3088               	movlw	high (_msg1| (0+32768))
  2065     0700  00F2               	movwf	enviaMsg@msg+1
  2066     0701  3185  250C  3186   	fcall	_enviaMsg
  2067     0704                     l1601:
  2068                           
  2069                           ;main.c: 263:         enviaNomes();
  2070     0704  3186  263F  3186   	fcall	_enviaNomes
  2071     0707                     l1603:
  2072                           
  2073                           ;main.c: 264:         EUSART_Write(0x0D);
  2074     0707  300D               	movlw	13
  2075     0708  3184  2476  3186   	fcall	_EUSART_Write
  2076                           
  2077                           ;main.c: 265:     }
  2078     070B  2F35               	goto	l1617
  2079     070C                     l1605:
  2080     070C  3041               	movlw	65
  2081     070D  063B               	xorwf	_bufferRx,w
  2082     070E  1D03               	btfss	3,2
  2083     070F  2F11               	goto	u811
  2084     0710  2F12               	goto	u810
  2085     0711                     u811:
  2086     0711  2F35               	goto	l1617
  2087     0712                     u810:
  2088     0712                     l1607:
  2089                           
  2090                           ;main.c: 267:         if (countName < 10){
  2091     0712  300A               	movlw	10
  2092     0713  023C               	subwf	_countName,w
  2093     0714  1803               	skipnc
  2094     0715  2F17               	goto	u821
  2095     0716  2F18               	goto	u820
  2096     0717                     u821:
  2097     0717  2F2E               	goto	l1615
  2098     0718                     u820:
  2099     0718                     l1609:
  2100                           
  2101                           ;main.c: 268:             recebeGuardaNome();
  2102     0718  3185  25E4  3186   	fcall	_recebeGuardaNome
  2103     071B                     l1611:
  2104                           
  2105                           ;main.c: 269:             ee[countName].estado = 1;
  2106     071B  01F6               	clrf	___ctoee@data
  2107     071C  0AF6               	incf	___ctoee@data,f
  2108     071D  3016               	movlw	22
  2109     071E  00F0               	movwf	___bmul@multiplicand
  2110     071F  0020               	movlb	0	; select bank0
  2111     0720  083C               	movf	_countName,w
  2112     0721  3184  24BD  3186   	fcall	___bmul
  2113     0724  3E00               	addlw	low _ee
  2114     0725  3184  2480  3186   	fcall	___ctoee
  2115     0728                     l1613:
  2116                           
  2117                           ;main.c: 270:             countName++;
  2118     0728  3001               	movlw	1
  2119     0729  00FB               	movwf	??_analisaRx
  2120     072A  087B               	movf	??_analisaRx,w
  2121     072B  0020               	movlb	0	; select bank0
  2122     072C  07BC               	addwf	_countName,f
  2123                           
  2124                           ;main.c: 271:         }
  2125     072D  2F35               	goto	l1617
  2126     072E                     l1615:
  2127                           
  2128                           ;main.c: 273:             enviaMsg(msg7);
  2129     072E  307E               	movlw	low (_msg7| (0+32768))
  2130     072F  00F1               	movwf	enviaMsg@msg
  2131     0730  3088               	movlw	high (_msg7| (0+32768))
  2132     0731  00F2               	movwf	enviaMsg@msg+1
  2133     0732  3185  250C  3186   	fcall	_enviaMsg
  2134     0735                     l1617:
  2135                           
  2136                           ;main.c: 276:     if(bufferRx == 0x50){
  2137     0735  3050               	movlw	80
  2138     0736  0020               	movlb	0	; select bank0
  2139     0737  063B               	xorwf	_bufferRx,w
  2140     0738  1D03               	btfss	3,2
  2141     0739  2F3B               	goto	u831
  2142     073A  2F3C               	goto	u830
  2143     073B                     u831:
  2144     073B  2FC6               	goto	l1651
  2145     073C                     u830:
  2146     073C                     l1619:
  2147                           
  2148                           ;main.c: 277:         int i = 0;
  2149     073C  01C8               	clrf	analisaRx@i
  2150     073D  01C9               	clrf	analisaRx@i+1
  2151                           
  2152                           ;main.c: 278:         while(i<=10){
  2153     073E  2FB8               	goto	l277
  2154     073F                     l1621:
  2155                           
  2156                           ;main.c: 279:             if(ee[i].estado == 1){
  2157     073F  3016               	movlw	22
  2158     0740  00F0               	movwf	___bmul@multiplicand
  2159     0741  0020               	movlb	0	; select bank0
  2160     0742  0848               	movf	analisaRx@i,w
  2161     0743  3184  24BD  3186   	fcall	___bmul
  2162     0746  3E00               	addlw	low _ee
  2163     0747  3184  248A  3186   	fcall	___eetoc
  2164     074A  3A01               	xorlw	1
  2165     074B  1D03               	skipz
  2166     074C  2F4E               	goto	u841
  2167     074D  2F4F               	goto	u840
  2168     074E                     u841:
  2169     074E  2FA4               	goto	l1643
  2170     074F                     u840:
  2171     074F                     l1623:
  2172                           
  2173                           ;main.c: 280:                 enviaMsg(msg3);
  2174     074F  30E3               	movlw	low (_msg3| (0+32768))
  2175     0750  00F1               	movwf	enviaMsg@msg
  2176     0751  3088               	movlw	high (_msg3| (0+32768))
  2177     0752  00F2               	movwf	enviaMsg@msg+1
  2178     0753  3185  250C  3186   	fcall	_enviaMsg
  2179     0756                     l1625:
  2180                           
  2181                           ;main.c: 281:                 EUSART_Write(0x20);
  2182     0756  3020               	movlw	32
  2183     0757  3184  2476  3186   	fcall	_EUSART_Write
  2184     075A                     l1627:
  2185                           
  2186                           ;main.c: 282:                 EUSART_Write(0x20);
  2187     075A  3020               	movlw	32
  2188     075B  3184  2476  3186   	fcall	_EUSART_Write
  2189     075E                     l1629:
  2190                           
  2191                           ;main.c: 283:                 for(int j = 0; j<20 && ee[i].name[j] != 0;j++){
  2192     075E  0020               	movlb	0	; select bank0
  2193     075F  01C4               	clrf	analisaRx@j
  2194     0760  01C5               	clrf	analisaRx@j+1
  2195     0761  2F77               	goto	l1635
  2196     0762                     l1631:
  2197                           
  2198                           ;main.c: 284:                     EUSART_Write(ee[i].name[j]);
  2199     0762  3016               	movlw	22
  2200     0763  00F0               	movwf	___bmul@multiplicand
  2201     0764  0020               	movlb	0	; select bank0
  2202     0765  0848               	movf	analisaRx@i,w
  2203     0766  3184  24BD  3186   	fcall	___bmul
  2204     0769  3E01               	addlw	low (_ee+1)
  2205     076A  0020               	movlb	0	; select bank0
  2206     076B  0744               	addwf	analisaRx@j,w
  2207     076C  3184  248A  3186   	fcall	___eetoc
  2208     076F  3184  2476  3186   	fcall	_EUSART_Write
  2209     0772                     l1633:
  2210                           
  2211                           ;main.c: 285:                 }
  2212     0772  3001               	movlw	1
  2213     0773  0020               	movlb	0	; select bank0
  2214     0774  07C4               	addwf	analisaRx@j,f
  2215     0775  3000               	movlw	0
  2216     0776  3DC5               	addwfc	analisaRx@j+1,f
  2217     0777                     l1635:
  2218     0777  0845               	movf	analisaRx@j+1,w
  2219     0778  3A80               	xorlw	128
  2220     0779  00FB               	movwf	??_analisaRx
  2221     077A  3080               	movlw	128
  2222     077B  027B               	subwf	??_analisaRx,w
  2223     077C  1D03               	skipz
  2224     077D  2F80               	goto	u855
  2225     077E  3014               	movlw	20
  2226     077F  0244               	subwf	analisaRx@j,w
  2227     0780                     u855:
  2228     0780  1803               	skipnc
  2229     0781  2F83               	goto	u851
  2230     0782  2F84               	goto	u850
  2231     0783                     u851:
  2232     0783  2F96               	goto	l1639
  2233     0784                     u850:
  2234     0784                     l1637:
  2235     0784  3016               	movlw	22
  2236     0785  00F0               	movwf	___bmul@multiplicand
  2237     0786  0020               	movlb	0	; select bank0
  2238     0787  0848               	movf	analisaRx@i,w
  2239     0788  3184  24BD  3186   	fcall	___bmul
  2240     078B  3E01               	addlw	low (_ee+1)
  2241     078C  0020               	movlb	0	; select bank0
  2242     078D  0744               	addwf	analisaRx@j,w
  2243     078E  3184  248A  3186   	fcall	___eetoc
  2244     0791  3A00               	xorlw	0
  2245     0792  1D03               	skipz
  2246     0793  2F95               	goto	u861
  2247     0794  2F96               	goto	u860
  2248     0795                     u861:
  2249     0795  2F62               	goto	l1631
  2250     0796                     u860:
  2251     0796                     l1639:
  2252                           
  2253                           ;main.c: 286:                 ee[i].estado = 2;
  2254     0796  3002               	movlw	2
  2255     0797  00F6               	movwf	___ctoee@data
  2256     0798  3016               	movlw	22
  2257     0799  00F0               	movwf	___bmul@multiplicand
  2258     079A  0020               	movlb	0	; select bank0
  2259     079B  0848               	movf	analisaRx@i,w
  2260     079C  3184  24BD  3186   	fcall	___bmul
  2261     079F  3E00               	addlw	low _ee
  2262     07A0  3184  2480  3186   	fcall	___ctoee
  2263                           
  2264                           ;main.c: 287:                 break;
  2265     07A3  2FF3               	goto	l293
  2266     07A4                     l1643:
  2267     07A4  300A               	movlw	10
  2268     07A5  0020               	movlb	0	; select bank0
  2269     07A6  0648               	xorwf	analisaRx@i,w
  2270     07A7  0449               	iorwf	analisaRx@i+1,w
  2271     07A8  1D03               	btfss	3,2
  2272     07A9  2FAB               	goto	u871
  2273     07AA  2FAC               	goto	u870
  2274     07AB                     u871:
  2275     07AB  2FB3               	goto	l1647
  2276     07AC                     u870:
  2277     07AC                     l1645:
  2278                           
  2279                           ;main.c: 290:                 enviaMsg(msg6);
  2280     07AC  3032               	movlw	low (_msg6| (0+32768))
  2281     07AD  00F1               	movwf	enviaMsg@msg
  2282     07AE  3088               	movlw	high (_msg6| (0+32768))
  2283     07AF  00F2               	movwf	enviaMsg@msg+1
  2284     07B0  3185  250C  3186   	fcall	_enviaMsg
  2285     07B3                     l1647:
  2286                           
  2287                           ;main.c: 291:                 i++;
  2288     07B3  3001               	movlw	1
  2289     07B4  0020               	movlb	0	; select bank0
  2290     07B5  07C8               	addwf	analisaRx@i,f
  2291     07B6  3000               	movlw	0
  2292     07B7  3DC9               	addwfc	analisaRx@i+1,f
  2293     07B8                     l277:	
  2294                           ;main.c: 296:         }
  2295                           
  2296                           
  2297                           ;main.c: 278:         while(i<=10){
  2298     07B8  0849               	movf	analisaRx@i+1,w
  2299     07B9  3A80               	xorlw	128
  2300     07BA  00FB               	movwf	??_analisaRx
  2301     07BB  3080               	movlw	128
  2302     07BC  027B               	subwf	??_analisaRx,w
  2303     07BD  1D03               	skipz
  2304     07BE  2FC1               	goto	u885
  2305     07BF  300B               	movlw	11
  2306     07C0  0248               	subwf	analisaRx@i,w
  2307     07C1                     u885:
  2308     07C1  1C03               	skipc
  2309     07C2  2FC4               	goto	u881
  2310     07C3  2FC5               	goto	u880
  2311     07C4                     u881:
  2312     07C4  2F3F               	goto	l1621
  2313     07C5                     u880:
  2314     07C5  2FF3               	goto	l293
  2315     07C6                     l1651:
  2316     07C6  3052               	movlw	82
  2317     07C7  063B               	xorwf	_bufferRx,w
  2318     07C8  1D03               	btfss	3,2
  2319     07C9  2FCB               	goto	u891
  2320     07CA  2FCC               	goto	u890
  2321     07CB                     u891:
  2322     07CB  2FF3               	goto	l293
  2323     07CC                     u890:
  2324     07CC                     l1653:
  2325                           
  2326                           ;main.c: 299:         for(int i = 0; i<=10; i++){
  2327     07CC  01C6               	clrf	analisaRx@i_424
  2328     07CD  01C7               	clrf	analisaRx@i_424+1
  2329     07CE                     l1659:
  2330                           
  2331                           ;main.c: 300:             ee[i].estado = 0;
  2332     07CE  01F6               	clrf	___ctoee@data
  2333     07CF  3016               	movlw	22
  2334     07D0  00F0               	movwf	___bmul@multiplicand
  2335     07D1  0020               	movlb	0	; select bank0
  2336     07D2  0846               	movf	analisaRx@i_424,w
  2337     07D3  3184  24BD  3186   	fcall	___bmul
  2338     07D6  3E00               	addlw	low _ee
  2339     07D7  3184  2480  3186   	fcall	___ctoee
  2340     07DA                     l1661:
  2341                           
  2342                           ;main.c: 301:         }
  2343     07DA  3001               	movlw	1
  2344     07DB  0020               	movlb	0	; select bank0
  2345     07DC  07C6               	addwf	analisaRx@i_424,f
  2346     07DD  3000               	movlw	0
  2347     07DE  3DC7               	addwfc	analisaRx@i_424+1,f
  2348     07DF                     l1663:
  2349     07DF  0847               	movf	analisaRx@i_424+1,w
  2350     07E0  3A80               	xorlw	128
  2351     07E1  00FB               	movwf	??_analisaRx
  2352     07E2  3080               	movlw	128
  2353     07E3  027B               	subwf	??_analisaRx,w
  2354     07E4  1D03               	skipz
  2355     07E5  2FE8               	goto	u905
  2356     07E6  300B               	movlw	11
  2357     07E7  0246               	subwf	analisaRx@i_424,w
  2358     07E8                     u905:
  2359     07E8  1C03               	skipc
  2360     07E9  2FEB               	goto	u901
  2361     07EA  2FEC               	goto	u900
  2362     07EB                     u901:
  2363     07EB  2FCE               	goto	l1659
  2364     07EC                     u900:
  2365     07EC                     l1665:
  2366                           
  2367                           ;main.c: 302:         enviaMsg(msg2);
  2368     07EC  30A2               	movlw	low (_msg2| (0+32768))
  2369     07ED  00F1               	movwf	enviaMsg@msg
  2370     07EE  3088               	movlw	high (_msg2| (0+32768))
  2371     07EF  00F2               	movwf	enviaMsg@msg+1
  2372     07F0  3185  250C  3186   	fcall	_enviaMsg
  2373     07F3                     l293:
  2374     07F3  0008               	return
  2375     07F4                     __end_of_analisaRx:
  2376                           
  2377                           	psect	text2
  2378     05E4                     __ptext2:	
  2379 ;; *************** function _recebeGuardaNome *****************
  2380 ;; Defined at:
  2381 ;;		line 231 in file "main.c"
  2382 ;; Parameters:    Size  Location     Type
  2383 ;;		None
  2384 ;; Auto vars:     Size  Location     Type
  2385 ;;  rxChar          1    9[COMMON] unsigned char 
  2386 ;;  countByte       1   10[COMMON] unsigned char 
  2387 ;; Return value:  Size  Location     Type
  2388 ;;                  1    wreg      void 
  2389 ;; Registers used:
  2390 ;;		wreg, fsr0l, fsr0h, fsr1l, fsr1h, status,2, status,0, pclath, cstack
  2391 ;; Tracked objects:
  2392 ;;		On entry : 0/0
  2393 ;;		On exit  : 0/0
  2394 ;;		Unchanged: 0/0
  2395 ;; Data sizes:     COMMON   BANK0   BANK1   BANK2   BANK3   BANK4
  2396 ;;      Params:         0       0       0       0       0       0
  2397 ;;      Locals:         2       0       0       0       0       0
  2398 ;;      Temps:          1       0       0       0       0       0
  2399 ;;      Totals:         3       0       0       0       0       0
  2400 ;;Total ram usage:        3 bytes
  2401 ;; Hardware stack levels used: 1
  2402 ;; Hardware stack levels required when called: 2
  2403 ;; This function calls:
  2404 ;;		_EUSART_Read
  2405 ;;		_EUSART_is_rx_ready
  2406 ;;		___bmul
  2407 ;;		___ctoee
  2408 ;;		_enviaMsg
  2409 ;; This function is called by:
  2410 ;;		_analisaRx
  2411 ;; This function uses a non-reentrant model
  2412 ;;
  2413                           
  2414     05E4                     _recebeGuardaNome:	
  2415                           ;psect for function _recebeGuardaNome
  2416                           
  2417     05E4                     l1565:	
  2418                           ;incstack = 0
  2419                           ; Regs used in _recebeGuardaNome: [wreg-fsr1h+status,2+status,0+pclath+cstack]
  2420                           
  2421                           
  2422                           ;main.c: 232:     static char nameRx[21];;main.c: 233:     uint8_t countByte = 0;
  2423     05E4  01FA               	clrf	recebeGuardaNome@countByte
  2424                           
  2425                           ;main.c: 234:     countRx = 0;
  2426     05E5  01FD               	clrf	_countRx
  2427                           
  2428                           ;main.c: 235:     while (countRx < (21 - 1)){
  2429     05E6  2E09               	goto	l1581
  2430     05E7                     l1567:
  2431                           
  2432                           ;main.c: 236:         if (EUSART_is_rx_ready()) {
  2433     05E7  3184  2459  3185   	fcall	_EUSART_is_rx_ready
  2434     05EA  3A00               	xorlw	0
  2435     05EB  1903               	skipnz
  2436     05EC  2DEE               	goto	u751
  2437     05ED  2DEF               	goto	u750
  2438     05EE                     u751:
  2439     05EE  2E09               	goto	l1581
  2440     05EF                     u750:
  2441     05EF                     l1569:
  2442                           
  2443                           ;main.c: 237:             uint8_t rxChar = EUSART_Read();
  2444     05EF  3184  24AE  3185   	fcall	_EUSART_Read
  2445     05F2  00F9               	movwf	recebeGuardaNome@rxChar
  2446     05F3                     l1571:
  2447                           
  2448                           ;main.c: 238:             if (rxChar == 0x0D){
  2449     05F3  300D               	movlw	13
  2450     05F4  0679               	xorwf	recebeGuardaNome@rxChar,w
  2451     05F5  1D03               	btfss	3,2
  2452     05F6  2DF8               	goto	u761
  2453     05F7  2DF9               	goto	u760
  2454     05F8                     u761:
  2455     05F8  2DFF               	goto	l1577
  2456     05F9                     u760:
  2457     05F9                     l1573:
  2458                           
  2459                           ;main.c: 239:                 nameRx[countRx] = 0;
  2460     05F9  087D               	movf	_countRx,w
  2461     05FA  3E20               	addlw	(low (recebeGuardaNome@nameRx| 0))& (0+255)
  2462     05FB  0086               	movwf	6
  2463     05FC  0187               	clrf	7
  2464     05FD  0181               	clrf	1
  2465                           
  2466                           ;main.c: 240:                 break;
  2467     05FE  2E0F               	goto	l1583
  2468     05FF                     l1577:
  2469                           
  2470                           ;main.c: 243:                 nameRx[countRx] = rxChar;
  2471     05FF  087D               	movf	_countRx,w
  2472     0600  3E20               	addlw	(low (recebeGuardaNome@nameRx| 0))& (0+255)
  2473     0601  0086               	movwf	6
  2474     0602  0187               	clrf	7
  2475     0603  0879               	movf	recebeGuardaNome@rxChar,w
  2476     0604  0081               	movwf	1
  2477     0605                     l1579:
  2478                           
  2479                           ;main.c: 244:                 countRx++;
  2480     0605  3001               	movlw	1
  2481     0606  00F8               	movwf	??_recebeGuardaNome
  2482     0607  0878               	movf	??_recebeGuardaNome,w
  2483     0608  07FD               	addwf	_countRx,f
  2484     0609                     l1581:
  2485                           
  2486                           ;main.c: 235:     while (countRx < (21 - 1)){
  2487     0609  3014               	movlw	20
  2488     060A  027D               	subwf	_countRx,w
  2489     060B  1C03               	skipc
  2490     060C  2E0E               	goto	u771
  2491     060D  2E0F               	goto	u770
  2492     060E                     u771:
  2493     060E  2DE7               	goto	l1567
  2494     060F                     u770:
  2495     060F                     l1583:
  2496                           
  2497                           ;main.c: 248:     nameRx[countRx] = 0;
  2498     060F  087D               	movf	_countRx,w
  2499     0610  3E20               	addlw	(low (recebeGuardaNome@nameRx| 0))& (0+255)
  2500     0611  0086               	movwf	6
  2501     0612  0187               	clrf	7
  2502     0613  0181               	clrf	1
  2503     0614                     l1585:
  2504                           
  2505                           ;main.c: 249:     if(nameRx[0] == 0){
  2506     0614  0020               	movlb	0	; select bank0
  2507     0615  0820               	movf	recebeGuardaNome@nameRx,w
  2508     0616  1D03               	btfss	3,2
  2509     0617  2E19               	goto	u781
  2510     0618  2E1A               	goto	u780
  2511     0619                     u781:
  2512     0619  2E38               	goto	l1593
  2513     061A                     u780:
  2514     061A                     l1587:
  2515                           
  2516                           ;main.c: 250:         enviaMsg(msg5);
  2517     061A  3058               	movlw	low (_msg5| (0+32768))
  2518     061B  00F1               	movwf	enviaMsg@msg
  2519     061C  3088               	movlw	high (_msg5| (0+32768))
  2520     061D  00F2               	movwf	enviaMsg@msg+1
  2521     061E  3185  250C  3185   	fcall	_enviaMsg
  2522                           
  2523                           ;main.c: 251:     }
  2524     0621  2E3E               	goto	l268
  2525     0622                     l1589:
  2526                           
  2527                           ;main.c: 254:             ee[countName].name[countByte] = nameRx[countByte];
  2528     0622  087A               	movf	recebeGuardaNome@countByte,w
  2529     0623  3E20               	addlw	(low (recebeGuardaNome@nameRx| 0))& (0+255)
  2530     0624  0086               	movwf	6
  2531     0625  0187               	clrf	7
  2532     0626  0801               	movf	1,w
  2533     0627  00F6               	movwf	___ctoee@data
  2534     0628  3016               	movlw	22
  2535     0629  00F0               	movwf	___bmul@multiplicand
  2536     062A  0020               	movlb	0	; select bank0
  2537     062B  083C               	movf	_countName,w
  2538     062C  3184  24BD  3185   	fcall	___bmul
  2539     062F  3E01               	addlw	low (_ee+1)
  2540     0630  077A               	addwf	recebeGuardaNome@countByte,w
  2541     0631  3184  2480  3185   	fcall	___ctoee
  2542     0634                     l1591:
  2543                           
  2544                           ;main.c: 255:             countByte++;
  2545     0634  3001               	movlw	1
  2546     0635  00F8               	movwf	??_recebeGuardaNome
  2547     0636  0878               	movf	??_recebeGuardaNome,w
  2548     0637  07FA               	addwf	recebeGuardaNome@countByte,f
  2549     0638                     l1593:
  2550                           
  2551                           ;main.c: 253:         while(countByte < 21){
  2552     0638  3015               	movlw	21
  2553     0639  027A               	subwf	recebeGuardaNome@countByte,w
  2554     063A  1C03               	skipc
  2555     063B  2E3D               	goto	u791
  2556     063C  2E3E               	goto	u790
  2557     063D                     u791:
  2558     063D  2E22               	goto	l1589
  2559     063E                     u790:
  2560     063E                     l268:
  2561     063E  0008               	return
  2562     063F                     __end_of_recebeGuardaNome:
  2563                           
  2564                           	psect	text3
  2565     050C                     __ptext3:	
  2566 ;; *************** function _enviaMsg *****************
  2567 ;; Defined at:
  2568 ;;		line 204 in file "main.c"
  2569 ;; Parameters:    Size  Location     Type
  2570 ;;  msg             2    1[COMMON] PTR const unsigned char 
  2571 ;;		 -> msg2(28), msg6(38), msg3(9), msg7(36), 
  2572 ;;		 -> msg1(22), msg5(38), 
  2573 ;; Auto vars:     Size  Location     Type
  2574 ;;  i               1    6[COMMON] unsigned char 
  2575 ;; Return value:  Size  Location     Type
  2576 ;;                  1    wreg      void 
  2577 ;; Registers used:
  2578 ;;		wreg, fsr0l, fsr0h, status,2, status,0, pclath, cstack
  2579 ;; Tracked objects:
  2580 ;;		On entry : 0/0
  2581 ;;		On exit  : 0/0
  2582 ;;		Unchanged: 0/0
  2583 ;; Data sizes:     COMMON   BANK0   BANK1   BANK2   BANK3   BANK4
  2584 ;;      Params:         2       0       0       0       0       0
  2585 ;;      Locals:         1       0       0       0       0       0
  2586 ;;      Temps:          3       0       0       0       0       0
  2587 ;;      Totals:         6       0       0       0       0       0
  2588 ;;Total ram usage:        6 bytes
  2589 ;; Hardware stack levels used: 1
  2590 ;; Hardware stack levels required when called: 1
  2591 ;; This function calls:
  2592 ;;		_EUSART_Write
  2593 ;; This function is called by:
  2594 ;;		_recebeGuardaNome
  2595 ;;		_analisaRx
  2596 ;; This function uses a non-reentrant model
  2597 ;;
  2598                           
  2599     050C                     _enviaMsg:	
  2600                           ;psect for function _enviaMsg
  2601                           
  2602     050C                     l1459:	
  2603                           ;incstack = 0
  2604                           ; Regs used in _enviaMsg: [wreg-fsr0h+status,2+status,0+pclath+cstack]
  2605                           
  2606                           
  2607                           ;main.c: 205:     uint8_t i = 0;
  2608     050C  01F6               	clrf	enviaMsg@i
  2609                           
  2610                           ;main.c: 206:     while (msg[i] > 0) {
  2611     050D  2D21               	goto	l1465
  2612     050E                     l1461:
  2613                           
  2614                           ;main.c: 207:         EUSART_Write(msg[i]);
  2615     050E  0872               	movf	enviaMsg@msg+1,w
  2616     050F  00F4               	movwf	??_enviaMsg+1
  2617     0510  0871               	movf	enviaMsg@msg,w
  2618     0511  00F3               	movwf	??_enviaMsg
  2619     0512  0876               	movf	enviaMsg@i,w
  2620     0513  0773               	addwf	??_enviaMsg,w
  2621     0514  0084               	movwf	4
  2622     0515  0874               	movf	??_enviaMsg+1,w
  2623     0516  1803               	skipnc
  2624     0517  0A74               	incf	??_enviaMsg+1,w
  2625     0518  0085               	movwf	5
  2626     0519  0800               	movf	0,w	;code access
  2627     051A  3184  2476  3185   	fcall	_EUSART_Write
  2628     051D                     l1463:
  2629                           
  2630                           ;main.c: 208:         i++;
  2631     051D  3001               	movlw	1
  2632     051E  00F3               	movwf	??_enviaMsg
  2633     051F  0873               	movf	??_enviaMsg,w
  2634     0520  07F6               	addwf	enviaMsg@i,f
  2635     0521                     l1465:
  2636                           
  2637                           ;main.c: 206:     while (msg[i] > 0) {
  2638     0521  0872               	movf	enviaMsg@msg+1,w
  2639     0522  00F4               	movwf	??_enviaMsg+1
  2640     0523  0871               	movf	enviaMsg@msg,w
  2641     0524  00F3               	movwf	??_enviaMsg
  2642     0525  0876               	movf	enviaMsg@i,w
  2643     0526  0773               	addwf	??_enviaMsg,w
  2644     0527  0084               	movwf	4
  2645     0528  0874               	movf	??_enviaMsg+1,w
  2646     0529  1803               	skipnc
  2647     052A  0A74               	incf	??_enviaMsg+1,w
  2648     052B  0085               	movwf	5
  2649     052C  0012               	moviw fsr0++
  2650     052D  1D03               	btfss	3,2
  2651     052E  2D30               	goto	u641
  2652     052F  2D31               	goto	u640
  2653     0530                     u641:
  2654     0530  2D0E               	goto	l1461
  2655     0531                     u640:
  2656     0531                     l1467:
  2657                           
  2658                           ;main.c: 210:     EUSART_Write(0x0D);
  2659     0531  300D               	movlw	13
  2660     0532  3184  2476  3185   	fcall	_EUSART_Write
  2661     0535                     l234:
  2662     0535  0008               	return
  2663     0536                     __end_of_enviaMsg:
  2664                           
  2665                           	psect	text4
  2666     0480                     __ptext4:	
  2667 ;; *************** function ___ctoee *****************
  2668 ;; Defined at:
  2669 ;;		line 150 in file "/opt/microchip/xc8/v2.46/pic/sources/c99/pic/__eeprom.c"
  2670 ;; Parameters:    Size  Location     Type
  2671 ;;  addr            1    wreg     PTR eeprom void 
  2672 ;;		 -> ee(220), 
  2673 ;;  data            1    6[COMMON] unsigned char 
  2674 ;; Auto vars:     Size  Location     Type
  2675 ;;  addr            1    7[COMMON] PTR eeprom void 
  2676 ;;		 -> ee(220), 
  2677 ;; Return value:  Size  Location     Type
  2678 ;;                  1    wreg      unsigned char 
  2679 ;; Registers used:
  2680 ;;		wreg, fsr1l, fsr1h, status,2, status,0, pclath, cstack
  2681 ;; Tracked objects:
  2682 ;;		On entry : 0/0
  2683 ;;		On exit  : 0/0
  2684 ;;		Unchanged: 0/0
  2685 ;; Data sizes:     COMMON   BANK0   BANK1   BANK2   BANK3   BANK4
  2686 ;;      Params:         1       0       0       0       0       0
  2687 ;;      Locals:         1       0       0       0       0       0
  2688 ;;      Temps:          0       0       0       0       0       0
  2689 ;;      Totals:         2       0       0       0       0       0
  2690 ;;Total ram usage:        2 bytes
  2691 ;; Hardware stack levels used: 1
  2692 ;; Hardware stack levels required when called: 1
  2693 ;; This function calls:
  2694 ;;		___memcpyee
  2695 ;; This function is called by:
  2696 ;;		_recebeGuardaNome
  2697 ;;		_analisaRx
  2698 ;; This function uses a non-reentrant model
  2699 ;;
  2700                           
  2701     0480                     ___ctoee:	
  2702                           ;psect for function ___ctoee
  2703                           
  2704                           
  2705                           ;incstack = 0
  2706                           ; Regs used in ___ctoee: [wreg+fsr1l+fsr1h+status,2+status,0+pclath+cstack]
  2707                           ;___ctoee@addr stored from wreg
  2708     0480  00F7               	movwf	___ctoee@addr
  2709     0481                     l1475:
  2710     0481  3076               	movlw	(low (___ctoee@data| 0))& (0+255)
  2711     0482  00F0               	movwf	___memcpyee@from
  2712     0483  01F1               	clrf	___memcpyee@size
  2713     0484  0AF1               	incf	___memcpyee@size,f
  2714     0485  0877               	movf	___ctoee@addr,w
  2715     0486  3185  259C  3184   	fcall	___memcpyee
  2716     0489                     l365:
  2717     0489  0008               	return
  2718     048A                     __end_of___ctoee:
  2719                           
  2720                           	psect	text5
  2721     059C                     __ptext5:	
  2722 ;; *************** function ___memcpyee *****************
  2723 ;; Defined at:
  2724 ;;		line 39 in file "/opt/microchip/xc8/v2.46/pic/sources/c99/pic/__eeprom.c"
  2725 ;; Parameters:    Size  Location     Type
  2726 ;;  to              1    wreg     PTR eeprom unsigned char
  2727 ;;		 -> ee(220), 
  2728 ;;  from            1    0[COMMON] PTR const unsigned char 
  2729 ;;		 -> __fltoee@data(4), __fttoee@data(4), __otoee@data(8), __ltoee@data(4), 
  2730 ;;		 -> __mtoee@data(3), __itoee@data(2), __ctoee@data(1), 
  2731 ;;  size            1    1[COMMON] unsigned char 
  2732 ;; Auto vars:     Size  Location     Type
  2733 ;;  to              1    5[COMMON] PTR eeprom unsigned char
  2734 ;;		 -> ee(220), 
  2735 ;;  ptr             1    4[COMMON] PTR const unsigned char 
  2736 ;;		 -> __fltoee@data(4), __fttoee@data(4), __otoee@data(8), __ltoee@data(4), 
  2737 ;;		 -> __mtoee@data(3), __itoee@data(2), __ctoee@data(1), 
  2738 ;; Return value:  Size  Location     Type
  2739 ;;                  1    wreg      void 
  2740 ;; Registers used:
  2741 ;;		wreg, fsr1l, fsr1h, status,2, status,0
  2742 ;; Tracked objects:
  2743 ;;		On entry : 0/0
  2744 ;;		On exit  : 0/0
  2745 ;;		Unchanged: 0/0
  2746 ;; Data sizes:     COMMON   BANK0   BANK1   BANK2   BANK3   BANK4
  2747 ;;      Params:         2       0       0       0       0       0
  2748 ;;      Locals:         2       0       0       0       0       0
  2749 ;;      Temps:          2       0       0       0       0       0
  2750 ;;      Totals:         6       0       0       0       0       0
  2751 ;;Total ram usage:        6 bytes
  2752 ;; Hardware stack levels used: 1
  2753 ;; This function calls:
  2754 ;;		Nothing
  2755 ;; This function is called by:
  2756 ;;		___ctoee
  2757 ;; This function uses a non-reentrant model
  2758 ;;
  2759                           
  2760     059C                     ___memcpyee:	
  2761                           ;psect for function ___memcpyee
  2762                           
  2763                           
  2764                           ;incstack = 0
  2765                           ; Regs used in ___memcpyee: [wreg+fsr1l+fsr1h+status,2+status,0]
  2766                           ;___memcpyee@to stored from wreg
  2767     059C  00F5               	movwf	___memcpyee@to
  2768     059D                     l1407:
  2769                           
  2770                           ;/opt/microchip/xc8/v2.46/pic/sources/c99/pic/__eeprom.c: 39: __memcpyee(__eeprom unsign
      +                          ed char * to, const unsigned char *from, unsigned char size);/opt/microchip/xc8/v2.46/pi
      +                          c/sources/c99/pic/__eeprom.c: 40: {;/opt/microchip/xc8/v2.46/pic/sources/c99/pic/__eepro
      +                          m.c: 41:  const unsigned char *ptr =from;
  2771     059D  0870               	movf	___memcpyee@from,w
  2772     059E  00F4               	movwf	___memcpyee@ptr
  2773     059F                     l336:	
  2774                           ;/opt/microchip/xc8/v2.46/pic/sources/c99/pic/__eeprom.c: 43:  while (EECON1bits.WR) con
      +                          tinue;
  2775                           
  2776     059F  0023               	movlb	3	; select bank3
  2777     05A0  1895               	btfsc	21,1	;volsfr
  2778     05A1  2DA3               	goto	u571
  2779     05A2  2DA4               	goto	u570
  2780     05A3                     u571:
  2781     05A3  2D9F               	goto	l336
  2782     05A4                     u570:
  2783     05A4                     l1409:
  2784                           
  2785                           ;/opt/microchip/xc8/v2.46/pic/sources/c99/pic/__eeprom.c: 44:  EEADR = (unsigned char)to
      +                           - 1U;
  2786     05A4  0875               	movf	___memcpyee@to,w
  2787     05A5  3EFF               	addlw	255
  2788     05A6  00F2               	movwf	??___memcpyee
  2789     05A7  30FF               	movlw	255
  2790     05A8  1803               	skipnc
  2791     05A9  3000               	movlw	0
  2792     05AA  00F3               	movwf	??___memcpyee+1
  2793     05AB  0872               	movf	??___memcpyee,w
  2794     05AC  0091               	movwf	17	;volatile
  2795     05AD  0873               	movf	??___memcpyee+1,w
  2796     05AE  0092               	movwf	18	;volatile
  2797     05AF                     l1411:
  2798                           
  2799                           ;/opt/microchip/xc8/v2.46/pic/sources/c99/pic/__eeprom.c: 46:  EECON1 &= 0x7F;
  2800     05AF  307F               	movlw	127
  2801     05B0  00F2               	movwf	??___memcpyee
  2802     05B1  0872               	movf	??___memcpyee,w
  2803     05B2  0595               	andwf	21,f	;volsfr
  2804                           
  2805                           ;/opt/microchip/xc8/v2.46/pic/sources/c99/pic/__eeprom.c: 48:  while(size--) {
  2806     05B3  2DDC               	goto	l1435
  2807     05B4                     l341:	
  2808                           ;/opt/microchip/xc8/v2.46/pic/sources/c99/pic/__eeprom.c: 51:   }
  2809                           
  2810                           
  2811                           ;/opt/microchip/xc8/v2.46/pic/sources/c99/pic/__eeprom.c: 49:   while (EECON1bits.WR) {
  2812     05B4  0023               	movlb	3	; select bank3
  2813     05B5  1895               	btfsc	21,1	;volsfr
  2814     05B6  2DB8               	goto	u581
  2815     05B7  2DB9               	goto	u580
  2816     05B8                     u581:
  2817     05B8  2DB4               	goto	l341
  2818     05B9                     u580:
  2819     05B9                     l1413:
  2820                           
  2821                           ;/opt/microchip/xc8/v2.46/pic/sources/c99/pic/__eeprom.c: 52:   EEDATA = *ptr++;
  2822     05B9  0874               	movf	___memcpyee@ptr,w
  2823     05BA  0086               	movwf	6
  2824     05BB  0187               	clrf	7
  2825     05BC  0801               	movf	1,w
  2826     05BD  0093               	movwf	19	;volatile
  2827     05BE                     l1415:
  2828     05BE  3001               	movlw	1
  2829     05BF  00F2               	movwf	??___memcpyee
  2830     05C0  0872               	movf	??___memcpyee,w
  2831     05C1  07F4               	addwf	___memcpyee@ptr,f
  2832     05C2                     l1417:
  2833                           
  2834                           ;/opt/microchip/xc8/v2.46/pic/sources/c99/pic/__eeprom.c: 53:   ++EEADR;
  2835     05C2  3001               	movlw	1
  2836     05C3  0791               	addwf	17,f	;volatile
  2837     05C4  3000               	movlw	0
  2838     05C5  3D92               	addwfc	18,f	;volatile
  2839     05C6                     l1419:
  2840                           
  2841                           ;/opt/microchip/xc8/v2.46/pic/sources/c99/pic/__eeprom.c: 54:   STATUSbits.CARRY = 0;
  2842     05C6  0020               	movlb	0	; select bank0
  2843     05C7  1003               	bcf	3,0	;volatile
  2844     05C8                     l1421:
  2845                           
  2846                           ;/opt/microchip/xc8/v2.46/pic/sources/c99/pic/__eeprom.c: 55:   if (INTCONbits.GIE) {
  2847     05C8  1F8B               	btfss	11,7	;volatile
  2848     05C9  2DCB               	goto	u591
  2849     05CA  2DCC               	goto	u590
  2850     05CB                     u591:
  2851     05CB  2DCD               	goto	l344
  2852     05CC                     u590:
  2853     05CC                     l1423:
  2854                           
  2855                           ;/opt/microchip/xc8/v2.46/pic/sources/c99/pic/__eeprom.c: 56:    STATUSbits.CARRY = 1;
  2856     05CC  1403               	bsf	3,0	;volatile
  2857     05CD                     l344:	
  2858                           ;/opt/microchip/xc8/v2.46/pic/sources/c99/pic/__eeprom.c: 57:   }
  2859                           
  2860                           
  2861                           ;/opt/microchip/xc8/v2.46/pic/sources/c99/pic/__eeprom.c: 58:   INTCONbits.GIE = 0;
  2862     05CD  138B               	bcf	11,7	;volatile
  2863                           
  2864                           ;/opt/microchip/xc8/v2.46/pic/sources/c99/pic/__eeprom.c: 59:   EECON1bits.WREN = 1;
  2865     05CE  0023               	movlb	3	; select bank3
  2866     05CF  1515               	bsf	21,2	;volsfr
  2867     05D0                     l1425:
  2868                           
  2869                           ;/opt/microchip/xc8/v2.46/pic/sources/c99/pic/__eeprom.c: 60:   EECON2 = 0x55;
  2870     05D0  3055               	movlw	85
  2871     05D1  0096               	movwf	22	;volsfr
  2872                           
  2873                           ;/opt/microchip/xc8/v2.46/pic/sources/c99/pic/__eeprom.c: 61:   EECON2 = 0xAA;
  2874     05D2  30AA               	movlw	170
  2875     05D3  0096               	movwf	22	;volsfr
  2876     05D4                     l1427:
  2877                           
  2878                           ;/opt/microchip/xc8/v2.46/pic/sources/c99/pic/__eeprom.c: 62:   EECON1bits.WR = 1;
  2879     05D4  1495               	bsf	21,1	;volsfr
  2880     05D5                     l1429:
  2881                           
  2882                           ;/opt/microchip/xc8/v2.46/pic/sources/c99/pic/__eeprom.c: 63:   EECON1bits.WREN = 0;
  2883     05D5  1115               	bcf	21,2	;volsfr
  2884     05D6                     l1431:
  2885                           
  2886                           ;/opt/microchip/xc8/v2.46/pic/sources/c99/pic/__eeprom.c: 64:   if (STATUSbits.CARRY) {
  2887     05D6  0020               	movlb	0	; select bank0
  2888     05D7  1C03               	btfss	3,0	;volatile
  2889     05D8  2DDA               	goto	u601
  2890     05D9  2DDB               	goto	u600
  2891     05DA                     u601:
  2892     05DA  2DDC               	goto	l1435
  2893     05DB                     u600:
  2894     05DB                     l1433:
  2895                           
  2896                           ;/opt/microchip/xc8/v2.46/pic/sources/c99/pic/__eeprom.c: 65:    INTCONbits.GIE = 1;
  2897     05DB  178B               	bsf	11,7	;volatile
  2898     05DC                     l1435:
  2899                           
  2900                           ;/opt/microchip/xc8/v2.46/pic/sources/c99/pic/__eeprom.c: 48:  while(size--) {
  2901     05DC  3001               	movlw	1
  2902     05DD  02F1               	subwf	___memcpyee@size,f
  2903     05DE  0A71               	incf	___memcpyee@size,w
  2904     05DF  1D03               	btfss	3,2
  2905     05E0  2DE2               	goto	u611
  2906     05E1  2DE3               	goto	u610
  2907     05E2                     u611:
  2908     05E2  2DB4               	goto	l341
  2909     05E3                     u610:
  2910     05E3                     l347:
  2911     05E3  0008               	return
  2912     05E4                     __end_of___memcpyee:
  2913                           
  2914                           	psect	text6
  2915     0459                     __ptext6:	
  2916 ;; *************** function _EUSART_is_rx_ready *****************
  2917 ;; Defined at:
  2918 ;;		line 99 in file "mcc_generated_files/eusart.c"
  2919 ;; Parameters:    Size  Location     Type
  2920 ;;		None
  2921 ;; Auto vars:     Size  Location     Type
  2922 ;;		None
  2923 ;; Return value:  Size  Location     Type
  2924 ;;                  1    wreg      _Bool 
  2925 ;; Registers used:
  2926 ;;		wreg, status,2, status,0
  2927 ;; Tracked objects:
  2928 ;;		On entry : 0/0
  2929 ;;		On exit  : 0/0
  2930 ;;		Unchanged: 0/0
  2931 ;; Data sizes:     COMMON   BANK0   BANK1   BANK2   BANK3   BANK4
  2932 ;;      Params:         0       0       0       0       0       0
  2933 ;;      Locals:         0       0       0       0       0       0
  2934 ;;      Temps:          0       0       0       0       0       0
  2935 ;;      Totals:         0       0       0       0       0       0
  2936 ;;Total ram usage:        0 bytes
  2937 ;; Hardware stack levels used: 1
  2938 ;; This function calls:
  2939 ;;		Nothing
  2940 ;; This function is called by:
  2941 ;;		_recebeGuardaNome
  2942 ;;		_main
  2943 ;; This function uses a non-reentrant model
  2944 ;;
  2945                           
  2946     0459                     _EUSART_is_rx_ready:	
  2947                           ;psect for function _EUSART_is_rx_ready
  2948                           
  2949     0459                     l1443:	
  2950                           ;incstack = 0
  2951                           ; Regs used in _EUSART_is_rx_ready: [wreg+status,2+status,0]
  2952                           
  2953                           
  2954                           ;mcc_generated_files/eusart.c: 101:     return (_Bool)(PIR1bits.RCIF);
  2955     0459  0020               	movlb	0	; select bank0
  2956     045A  0E11               	swapf	17,w	;volatile
  2957     045B  0C89               	rrf	9,f
  2958     045C  3901               	andlw	1
  2959     045D                     l101:
  2960     045D  0008               	return
  2961     045E                     __end_of_EUSART_is_rx_ready:
  2962                           
  2963                           	psect	text7
  2964     04AE                     __ptext7:	
  2965 ;; *************** function _EUSART_Read *****************
  2966 ;; Defined at:
  2967 ;;		line 113 in file "mcc_generated_files/eusart.c"
  2968 ;; Parameters:    Size  Location     Type
  2969 ;;		None
  2970 ;; Auto vars:     Size  Location     Type
  2971 ;;		None
  2972 ;; Return value:  Size  Location     Type
  2973 ;;                  1    wreg      unsigned char 
  2974 ;; Registers used:
  2975 ;;		wreg, status,2
  2976 ;; Tracked objects:
  2977 ;;		On entry : 0/0
  2978 ;;		On exit  : 0/0
  2979 ;;		Unchanged: 0/0
  2980 ;; Data sizes:     COMMON   BANK0   BANK1   BANK2   BANK3   BANK4
  2981 ;;      Params:         0       0       0       0       0       0
  2982 ;;      Locals:         0       0       0       0       0       0
  2983 ;;      Temps:          0       0       0       0       0       0
  2984 ;;      Totals:         0       0       0       0       0       0
  2985 ;;Total ram usage:        0 bytes
  2986 ;; Hardware stack levels used: 1
  2987 ;; This function calls:
  2988 ;;		Nothing
  2989 ;; This function is called by:
  2990 ;;		_recebeGuardaNome
  2991 ;;		_main
  2992 ;; This function uses a non-reentrant model
  2993 ;;
  2994                           
  2995     04AE                     _EUSART_Read:	
  2996                           ;psect for function _EUSART_Read
  2997                           
  2998     04AE                     l1447:	
  2999                           ;incstack = 0
  3000                           ; Regs used in _EUSART_Read: [wreg+status,2]
  3001                           
  3002     04AE                     l110:	
  3003                           ;mcc_generated_files/eusart.c: 116:     {;mcc_generated_files/eusart.c: 117:     }
  3004                           
  3005                           
  3006                           ;mcc_generated_files/eusart.c: 115:     while(!PIR1bits.RCIF)
  3007     04AE  0020               	movlb	0	; select bank0
  3008     04AF  1E91               	btfss	17,5	;volatile
  3009     04B0  2CB2               	goto	u621
  3010     04B1  2CB3               	goto	u620
  3011     04B2                     u621:
  3012     04B2  2CAE               	goto	l110
  3013     04B3                     u620:
  3014     04B3                     l1449:
  3015                           
  3016                           ;mcc_generated_files/eusart.c: 119:     eusartRxLastError.status = 0;
  3017     04B3  01BD               	clrf	_eusartRxLastError	;volatile
  3018     04B4                     l1451:
  3019                           
  3020                           ;mcc_generated_files/eusart.c: 121:     if(1 == RCSTAbits.OERR)
  3021     04B4  0023               	movlb	3	; select bank3
  3022     04B5  1C9D               	btfss	29,1	;volatile
  3023     04B6  2CB8               	goto	u631
  3024     04B7  2CB9               	goto	u630
  3025     04B8                     u631:
  3026     04B8  2CBB               	goto	l1455
  3027     04B9                     u630:
  3028     04B9                     l1453:
  3029                           
  3030                           ;mcc_generated_files/eusart.c: 122:     {;mcc_generated_files/eusart.c: 125:         RCS
      +                          TAbits.CREN = 0;
  3031     04B9  121D               	bcf	29,4	;volatile
  3032                           
  3033                           ;mcc_generated_files/eusart.c: 126:         RCSTAbits.CREN = 1;
  3034     04BA  161D               	bsf	29,4	;volatile
  3035     04BB                     l1455:
  3036                           
  3037                           ;mcc_generated_files/eusart.c: 129:     return RCREG;
  3038     04BB  0819               	movf	25,w	;volatile
  3039     04BC                     l114:
  3040     04BC  0008               	return
  3041     04BD                     __end_of_EUSART_Read:
  3042                           
  3043                           	psect	text8
  3044     063F                     __ptext8:	
  3045 ;; *************** function _enviaNomes *****************
  3046 ;; Defined at:
  3047 ;;		line 212 in file "main.c"
  3048 ;; Parameters:    Size  Location     Type
  3049 ;;		None
  3050 ;; Auto vars:     Size  Location     Type
  3051 ;;  j               2    2[BANK0 ] int 
  3052 ;;  j               2    0[BANK0 ] int 
  3053 ;;  i               2    4[BANK0 ] int 
  3054 ;; Return value:  Size  Location     Type
  3055 ;;                  1    wreg      void 
  3056 ;; Registers used:
  3057 ;;		wreg, fsr1l, fsr1h, status,2, status,0, pclath, cstack
  3058 ;; Tracked objects:
  3059 ;;		On entry : 0/0
  3060 ;;		On exit  : 0/0
  3061 ;;		Unchanged: 0/0
  3062 ;; Data sizes:     COMMON   BANK0   BANK1   BANK2   BANK3   BANK4
  3063 ;;      Params:         0       0       0       0       0       0
  3064 ;;      Locals:         0       6       0       0       0       0
  3065 ;;      Temps:          1       0       0       0       0       0
  3066 ;;      Totals:         1       6       0       0       0       0
  3067 ;;Total ram usage:        7 bytes
  3068 ;; Hardware stack levels used: 1
  3069 ;; Hardware stack levels required when called: 2
  3070 ;; This function calls:
  3071 ;;		_EUSART_Write
  3072 ;;		___bmul
  3073 ;;		___eetoc
  3074 ;; This function is called by:
  3075 ;;		_analisaRx
  3076 ;; This function uses a non-reentrant model
  3077 ;;
  3078                           
  3079     063F                     _enviaNomes:	
  3080                           ;psect for function _enviaNomes
  3081                           
  3082     063F                     l1529:	
  3083                           ;incstack = 0
  3084                           ; Regs used in _enviaNomes: [wreg+fsr1l+fsr1h+status,2+status,0+pclath+cstack]
  3085                           
  3086                           
  3087                           ;main.c: 213:     for(int i = 0; i<=10; i++){
  3088     063F  0020               	movlb	0	; select bank0
  3089     0640  01C2               	clrf	enviaNomes@i
  3090     0641  01C3               	clrf	enviaNomes@i+1
  3091     0642                     l1535:
  3092                           
  3093                           ;main.c: 214:         if(ee[i].estado == 2){
  3094     0642  3016               	movlw	22
  3095     0643  00F0               	movwf	___bmul@multiplicand
  3096     0644  0020               	movlb	0	; select bank0
  3097     0645  0842               	movf	enviaNomes@i,w
  3098     0646  3184  24BD  3186   	fcall	___bmul
  3099     0649  3E00               	addlw	low _ee
  3100     064A  3184  248A  3186   	fcall	___eetoc
  3101     064D  3A02               	xorlw	2
  3102     064E  1D03               	skipz
  3103     064F  2E51               	goto	u681
  3104     0650  2E52               	goto	u680
  3105     0651                     u681:
  3106     0651  2E93               	goto	l1549
  3107     0652                     u680:
  3108     0652                     l1537:
  3109                           
  3110                           ;main.c: 215:             EUSART_Write(0x20);
  3111     0652  3020               	movlw	32
  3112     0653  3184  2476  3186   	fcall	_EUSART_Write
  3113                           
  3114                           ;main.c: 216:             EUSART_Write(0x58);
  3115     0656  3058               	movlw	88
  3116     0657  3184  2476  3186   	fcall	_EUSART_Write
  3117     065A                     l1539:
  3118                           
  3119                           ;main.c: 217:             for(int j = 0; j<20 && ee[i].name[j] != 0;j++){
  3120     065A  0020               	movlb	0	; select bank0
  3121     065B  01BE               	clrf	enviaNomes@j
  3122     065C  01BF               	clrf	enviaNomes@j+1
  3123     065D  2E73               	goto	l1545
  3124     065E                     l1541:
  3125                           
  3126                           ;main.c: 218:                 EUSART_Write(ee[i].name[j]);
  3127     065E  3016               	movlw	22
  3128     065F  00F0               	movwf	___bmul@multiplicand
  3129     0660  0020               	movlb	0	; select bank0
  3130     0661  0842               	movf	enviaNomes@i,w
  3131     0662  3184  24BD  3186   	fcall	___bmul
  3132     0665  3E01               	addlw	low (_ee+1)
  3133     0666  0020               	movlb	0	; select bank0
  3134     0667  073E               	addwf	enviaNomes@j,w
  3135     0668  3184  248A  3186   	fcall	___eetoc
  3136     066B  3184  2476  3186   	fcall	_EUSART_Write
  3137     066E                     l1543:
  3138                           
  3139                           ;main.c: 219:             }
  3140     066E  3001               	movlw	1
  3141     066F  0020               	movlb	0	; select bank0
  3142     0670  07BE               	addwf	enviaNomes@j,f
  3143     0671  3000               	movlw	0
  3144     0672  3DBF               	addwfc	enviaNomes@j+1,f
  3145     0673                     l1545:
  3146     0673  083F               	movf	enviaNomes@j+1,w
  3147     0674  3A80               	xorlw	128
  3148     0675  00F8               	movwf	??_enviaNomes
  3149     0676  3080               	movlw	128
  3150     0677  0278               	subwf	??_enviaNomes,w
  3151     0678  1D03               	skipz
  3152     0679  2E7C               	goto	u695
  3153     067A  3014               	movlw	20
  3154     067B  023E               	subwf	enviaNomes@j,w
  3155     067C                     u695:
  3156     067C  1803               	skipnc
  3157     067D  2E7F               	goto	u691
  3158     067E  2E80               	goto	u690
  3159     067F                     u691:
  3160     067F  2EE3               	goto	l1563
  3161     0680                     u690:
  3162     0680                     l1547:
  3163     0680  3016               	movlw	22
  3164     0681  00F0               	movwf	___bmul@multiplicand
  3165     0682  0020               	movlb	0	; select bank0
  3166     0683  0842               	movf	enviaNomes@i,w
  3167     0684  3184  24BD  3186   	fcall	___bmul
  3168     0687  3E01               	addlw	low (_ee+1)
  3169     0688  0020               	movlb	0	; select bank0
  3170     0689  073E               	addwf	enviaNomes@j,w
  3171     068A  3184  248A  3186   	fcall	___eetoc
  3172     068D  3A00               	xorlw	0
  3173     068E  1D03               	skipz
  3174     068F  2E91               	goto	u701
  3175     0690  2E92               	goto	u700
  3176     0691                     u701:
  3177     0691  2E5E               	goto	l1541
  3178     0692                     u700:
  3179     0692  2EE3               	goto	l1563
  3180     0693                     l1549:
  3181     0693  3016               	movlw	22
  3182     0694  00F0               	movwf	___bmul@multiplicand
  3183     0695  0020               	movlb	0	; select bank0
  3184     0696  0842               	movf	enviaNomes@i,w
  3185     0697  3184  24BD  3186   	fcall	___bmul
  3186     069A  3E00               	addlw	low _ee
  3187     069B  3184  248A  3186   	fcall	___eetoc
  3188     069E  3A01               	xorlw	1
  3189     069F  1D03               	skipz
  3190     06A0  2EA2               	goto	u711
  3191     06A1  2EA3               	goto	u710
  3192     06A2                     u711:
  3193     06A2  2EE3               	goto	l1563
  3194     06A3                     u710:
  3195     06A3                     l1551:
  3196                           
  3197                           ;main.c: 222:             EUSART_Write(0x20);
  3198     06A3  3020               	movlw	32
  3199     06A4  3184  2476  3186   	fcall	_EUSART_Write
  3200                           
  3201                           ;main.c: 223:             EUSART_Write(0x20);
  3202     06A7  3020               	movlw	32
  3203     06A8  3184  2476  3186   	fcall	_EUSART_Write
  3204     06AB                     l1553:
  3205                           
  3206                           ;main.c: 224:             for(int j = 0; j<20 && ee[i].name[j] != 0;j++){
  3207     06AB  0020               	movlb	0	; select bank0
  3208     06AC  01C0               	clrf	enviaNomes@j_411
  3209     06AD  01C1               	clrf	enviaNomes@j_411+1
  3210     06AE  2EC4               	goto	l1559
  3211     06AF                     l1555:
  3212                           
  3213                           ;main.c: 225:                 EUSART_Write(ee[i].name[j]);
  3214     06AF  3016               	movlw	22
  3215     06B0  00F0               	movwf	___bmul@multiplicand
  3216     06B1  0020               	movlb	0	; select bank0
  3217     06B2  0842               	movf	enviaNomes@i,w
  3218     06B3  3184  24BD  3186   	fcall	___bmul
  3219     06B6  3E01               	addlw	low (_ee+1)
  3220     06B7  0020               	movlb	0	; select bank0
  3221     06B8  0740               	addwf	enviaNomes@j_411,w
  3222     06B9  3184  248A  3186   	fcall	___eetoc
  3223     06BC  3184  2476  3186   	fcall	_EUSART_Write
  3224     06BF                     l1557:
  3225                           
  3226                           ;main.c: 226:             }
  3227     06BF  3001               	movlw	1
  3228     06C0  0020               	movlb	0	; select bank0
  3229     06C1  07C0               	addwf	enviaNomes@j_411,f
  3230     06C2  3000               	movlw	0
  3231     06C3  3DC1               	addwfc	enviaNomes@j_411+1,f
  3232     06C4                     l1559:
  3233     06C4  0841               	movf	enviaNomes@j_411+1,w
  3234     06C5  3A80               	xorlw	128
  3235     06C6  00F8               	movwf	??_enviaNomes
  3236     06C7  3080               	movlw	128
  3237     06C8  0278               	subwf	??_enviaNomes,w
  3238     06C9  1D03               	skipz
  3239     06CA  2ECD               	goto	u725
  3240     06CB  3014               	movlw	20
  3241     06CC  0240               	subwf	enviaNomes@j_411,w
  3242     06CD                     u725:
  3243     06CD  1803               	skipnc
  3244     06CE  2ED0               	goto	u721
  3245     06CF  2ED1               	goto	u720
  3246     06D0                     u721:
  3247     06D0  2EE3               	goto	l1563
  3248     06D1                     u720:
  3249     06D1                     l1561:
  3250     06D1  3016               	movlw	22
  3251     06D2  00F0               	movwf	___bmul@multiplicand
  3252     06D3  0020               	movlb	0	; select bank0
  3253     06D4  0842               	movf	enviaNomes@i,w
  3254     06D5  3184  24BD  3186   	fcall	___bmul
  3255     06D8  3E01               	addlw	low (_ee+1)
  3256     06D9  0020               	movlb	0	; select bank0
  3257     06DA  0740               	addwf	enviaNomes@j_411,w
  3258     06DB  3184  248A  3186   	fcall	___eetoc
  3259     06DE  3A00               	xorlw	0
  3260     06DF  1D03               	skipz
  3261     06E0  2EE2               	goto	u731
  3262     06E1  2EE3               	goto	u730
  3263     06E2                     u731:
  3264     06E2  2EAF               	goto	l1555
  3265     06E3                     u730:
  3266     06E3                     l1563:
  3267                           
  3268                           ;main.c: 228:     }
  3269     06E3  3001               	movlw	1
  3270     06E4  0020               	movlb	0	; select bank0
  3271     06E5  07C2               	addwf	enviaNomes@i,f
  3272     06E6  3000               	movlw	0
  3273     06E7  3DC3               	addwfc	enviaNomes@i+1,f
  3274     06E8  0843               	movf	enviaNomes@i+1,w
  3275     06E9  3A80               	xorlw	128
  3276     06EA  00F8               	movwf	??_enviaNomes
  3277     06EB  3080               	movlw	128
  3278     06EC  0278               	subwf	??_enviaNomes,w
  3279     06ED  1D03               	skipz
  3280     06EE  2EF1               	goto	u745
  3281     06EF  300B               	movlw	11
  3282     06F0  0242               	subwf	enviaNomes@i,w
  3283     06F1                     u745:
  3284     06F1  1C03               	skipc
  3285     06F2  2EF4               	goto	u741
  3286     06F3  2EF5               	goto	u740
  3287     06F4                     u741:
  3288     06F4  2E42               	goto	l1535
  3289     06F5                     u740:
  3290     06F5                     l252:
  3291     06F5  0008               	return
  3292     06F6                     __end_of_enviaNomes:
  3293                           
  3294                           	psect	text9
  3295     048A                     __ptext9:	
  3296 ;; *************** function ___eetoc *****************
  3297 ;; Defined at:
  3298 ;;		line 104 in file "/opt/microchip/xc8/v2.46/pic/sources/c99/pic/__eeprom.c"
  3299 ;; Parameters:    Size  Location     Type
  3300 ;;  addr            1    wreg     PTR eeprom void 
  3301 ;;		 -> ee(220), 
  3302 ;; Auto vars:     Size  Location     Type
  3303 ;;  addr            1    6[COMMON] PTR eeprom void 
  3304 ;;		 -> ee(220), 
  3305 ;;  data            1    7[COMMON] unsigned char 
  3306 ;; Return value:  Size  Location     Type
  3307 ;;                  1    wreg      unsigned char 
  3308 ;; Registers used:
  3309 ;;		wreg, fsr1l, fsr1h, status,2, status,0, pclath, cstack
  3310 ;; Tracked objects:
  3311 ;;		On entry : 0/0
  3312 ;;		On exit  : 0/0
  3313 ;;		Unchanged: 0/0
  3314 ;; Data sizes:     COMMON   BANK0   BANK1   BANK2   BANK3   BANK4
  3315 ;;      Params:         0       0       0       0       0       0
  3316 ;;      Locals:         2       0       0       0       0       0
  3317 ;;      Temps:          0       0       0       0       0       0
  3318 ;;      Totals:         2       0       0       0       0       0
  3319 ;;Total ram usage:        2 bytes
  3320 ;; Hardware stack levels used: 1
  3321 ;; Hardware stack levels required when called: 1
  3322 ;; This function calls:
  3323 ;;		___eecpymem
  3324 ;; This function is called by:
  3325 ;;		_enviaNomes
  3326 ;;		_analisaRx
  3327 ;; This function uses a non-reentrant model
  3328 ;;
  3329                           
  3330     048A                     ___eetoc:	
  3331                           ;psect for function ___eetoc
  3332                           
  3333                           
  3334                           ;incstack = 0
  3335                           ; Regs used in ___eetoc: [wreg+fsr1l+fsr1h+status,2+status,0+pclath+cstack]
  3336                           ;___eetoc@addr stored from wreg
  3337     048A  00F6               	movwf	___eetoc@addr
  3338     048B                     l1469:
  3339                           
  3340                           ;/opt/microchip/xc8/v2.46/pic/sources/c99/pic/__eeprom.c: 104: __eetoc(__eeprom void *ad
      +                          dr);/opt/microchip/xc8/v2.46/pic/sources/c99/pic/__eeprom.c: 105: {;/opt/microchip/xc8/v
      +                          2.46/pic/sources/c99/pic/__eeprom.c: 106:  unsigned char data;;/opt/microchip/xc8/v2.46/
      +                          pic/sources/c99/pic/__eeprom.c: 107:  __eecpymem((unsigned char *) &data,addr,1);
  3341     048B  0876               	movf	___eetoc@addr,w
  3342     048C  00F0               	movwf	___eecpymem@from
  3343     048D  01F1               	clrf	___eecpymem@size
  3344     048E  0AF1               	incf	___eecpymem@size,f
  3345     048F  3077               	movlw	(low (___eetoc@data| 0))& (0+255)
  3346     0490  3185  2536  3184   	fcall	___eecpymem
  3347     0493                     l1471:
  3348                           
  3349                           ;/opt/microchip/xc8/v2.46/pic/sources/c99/pic/__eeprom.c: 108:  return data;
  3350     0493  0877               	movf	___eetoc@data,w
  3351     0494                     l350:
  3352     0494  0008               	return
  3353     0495                     __end_of___eetoc:
  3354                           
  3355                           	psect	text10
  3356     0536                     __ptext10:	
  3357 ;; *************** function ___eecpymem *****************
  3358 ;; Defined at:
  3359 ;;		line 6 in file "/opt/microchip/xc8/v2.46/pic/sources/c99/pic/__eeprom.c"
  3360 ;; Parameters:    Size  Location     Type
  3361 ;;  to              1    wreg     PTR volatile unsigned ch
  3362 ;;		 -> __eetofl@data(4), __eetoft@data(4), __eetoo@data(8), __eetol@data(4), 
  3363 ;;		 -> __eetom@data(3), __eetoi@data(2), __eetoc@data(1), 
  3364 ;;  from            1    0[COMMON] PTR eeprom unsigned char
  3365 ;;		 -> ee(220), 
  3366 ;;  size            1    1[COMMON] unsigned char 
  3367 ;; Auto vars:     Size  Location     Type
  3368 ;;  to              1    5[COMMON] PTR volatile unsigned ch
  3369 ;;		 -> __eetofl@data(4), __eetoft@data(4), __eetoo@data(8), __eetol@data(4), 
  3370 ;;		 -> __eetom@data(3), __eetoi@data(2), __eetoc@data(1), 
  3371 ;;  cp              1    4[COMMON] PTR volatile unsigned ch
  3372 ;;		 -> __eetofl@data(4), __eetoft@data(4), __eetoo@data(8), __eetol@data(4), 
  3373 ;;		 -> __eetom@data(3), __eetoi@data(2), __eetoc@data(1), 
  3374 ;; Return value:  Size  Location     Type
  3375 ;;                  1    wreg      void 
  3376 ;; Registers used:
  3377 ;;		wreg, fsr1l, fsr1h, status,2, status,0
  3378 ;; Tracked objects:
  3379 ;;		On entry : 0/0
  3380 ;;		On exit  : 0/0
  3381 ;;		Unchanged: 0/0
  3382 ;; Data sizes:     COMMON   BANK0   BANK1   BANK2   BANK3   BANK4
  3383 ;;      Params:         2       0       0       0       0       0
  3384 ;;      Locals:         2       0       0       0       0       0
  3385 ;;      Temps:          2       0       0       0       0       0
  3386 ;;      Totals:         6       0       0       0       0       0
  3387 ;;Total ram usage:        6 bytes
  3388 ;; Hardware stack levels used: 1
  3389 ;; This function calls:
  3390 ;;		Nothing
  3391 ;; This function is called by:
  3392 ;;		___eetoc
  3393 ;; This function uses a non-reentrant model
  3394 ;;
  3395                           
  3396     0536                     ___eecpymem:	
  3397                           ;psect for function ___eecpymem
  3398                           
  3399                           
  3400                           ;incstack = 0
  3401                           ; Regs used in ___eecpymem: [wreg+fsr1l+fsr1h+status,2+status,0]
  3402                           ;___eecpymem@to stored from wreg
  3403     0536  00F5               	movwf	___eecpymem@to
  3404     0537                     l1391:
  3405                           
  3406                           ;/opt/microchip/xc8/v2.46/pic/sources/c99/pic/__eeprom.c: 6: __eecpymem(volatile unsigne
      +                          d char *to, __eeprom unsigned char * from, unsigned char size);/opt/microchip/xc8/v2.46/
      +                          pic/sources/c99/pic/__eeprom.c: 6: };/opt/microchip/xc8/v2.46/pic/sources/c99/pic/__eepr
      +                          om.c: 6: ;/opt/microchip/xc8/v2.46/pic/sources/c99/pic/__eeprom.c: 6: ;/opt/microchip/xc
      +                          8/v2.46/pic/sources/c99/pic/__eeprom.c: 6: };/opt/microchip/xc8/v2.46/pic/sources/c99/pi
      +                          c/__eeprom.c: 7: {;/opt/microchip/xc8/v2.46/pic/sources/c99/pic/__eeprom.c: 7: 
  3407     0537  0875               	movf	___eecpymem@to,w
  3408     0538  00F4               	movwf	___eecpymem@cp
  3409     0539                     l324:	
  3410                           ;/opt/microchip/xc8/v2.46/pic/sources/c99/pic/__eeprom.c: 10:  while (EECON1bits.WR) con
      +                          tinue;;/opt/microchip/xc8/v2.46/pic/sources/c99/pic/__eeprom.c: 10:  __memcpyee(addr,(un
      +                          signed char *) &data,2);;/opt/microchip/xc8/v2.46/pic/sources/c99/pic/__eeprom.c: 10: {
  3411                           
  3412     0539  0023               	movlb	3	; select bank3
  3413     053A  1895               	btfsc	21,1	;volsfr
  3414     053B  2D3D               	goto	u541
  3415     053C  2D3E               	goto	u540
  3416     053D                     u541:
  3417     053D  2D39               	goto	l324
  3418     053E                     u540:
  3419     053E                     l1393:
  3420                           
  3421                           ;/opt/microchip/xc8/v2.46/pic/sources/c99/pic/__eeprom.c: 11:  EEADR = (unsigned char)fr
      +                          om;;/opt/microchip/xc8/v2.46/pic/sources/c99/pic/__eeprom.c: 11:  return data;;/opt/micr
      +                          ochip/xc8/v2.46/pic/sources/c99/pic/__eeprom.c: 11:  double data;
  3422     053E  0870               	movf	___eecpymem@from,w
  3423     053F  00F2               	movwf	??___eecpymem
  3424     0540  01F3               	clrf	??___eecpymem+1
  3425     0541  0872               	movf	??___eecpymem,w
  3426     0542  0091               	movwf	17	;volatile
  3427     0543  0873               	movf	??___eecpymem+1,w
  3428     0544  0092               	movwf	18	;volatile
  3429                           
  3430                           ;/opt/microchip/xc8/v2.46/pic/sources/c99/pic/__eeprom.c: 12:  while(size--) {;/opt/micr
      +                          ochip/xc8/v2.46/pic/sources/c99/pic/__eeprom.c: 12: };/opt/microchip/xc8/v2.46/pic/sourc
      +                          es/c99/pic/__eeprom.c: 12:  __eecpymem((unsigned char *) &data,addr,4);
  3431     0545  2D5C               	goto	l1405
  3432     0546                     l329:
  3433     0546  1895               	btfsc	21,1	;volsfr
  3434     0547  2D49               	goto	u551
  3435     0548  2D4A               	goto	u550
  3436     0549                     u551:
  3437     0549  2D46               	goto	l329
  3438     054A                     u550:
  3439     054A                     l1395:
  3440                           
  3441                           ;/opt/microchip/xc8/v2.46/pic/sources/c99/pic/__eeprom.c: 15:   EECON1 &= 0x7F;;/opt/mic
      +                          rochip/xc8/v2.46/pic/sources/c99/pic/__eeprom.c: 15: 
  3442     054A  307F               	movlw	127
  3443     054B  00F2               	movwf	??___eecpymem
  3444     054C  0872               	movf	??___eecpymem,w
  3445     054D  0595               	andwf	21,f	;volsfr
  3446     054E                     l1397:
  3447                           
  3448                           ;/opt/microchip/xc8/v2.46/pic/sources/c99/pic/__eeprom.c: 17:   EECON1bits.RD = 1;;/opt/
      +                          microchip/xc8/v2.46/pic/sources/c99/pic/__eeprom.c: 17: __fttoee(__eeprom void *addr, fl
      +                          oat data)
  3449     054E  1415               	bsf	21,0	;volsfr
  3450     054F                     l1399:
  3451                           
  3452                           ;/opt/microchip/xc8/v2.46/pic/sources/c99/pic/__eeprom.c: 18:   *cp++ = EEDATA;;/opt/mic
      +                          rochip/xc8/v2.46/pic/sources/c99/pic/__eeprom.c: 18: {
  3453     054F  0874               	movf	___eecpymem@cp,w
  3454     0550  0086               	movwf	6
  3455     0551  0187               	clrf	7
  3456     0552  0813               	movf	19,w	;volatile
  3457     0553  0081               	movwf	1
  3458     0554                     l1401:
  3459     0554  3001               	movlw	1
  3460     0555  00F2               	movwf	??___eecpymem
  3461     0556  0872               	movf	??___eecpymem,w
  3462     0557  07F4               	addwf	___eecpymem@cp,f
  3463     0558                     l1403:
  3464                           
  3465                           ;/opt/microchip/xc8/v2.46/pic/sources/c99/pic/__eeprom.c: 19:   ++EEADR;;/opt/microchip/
      +                          xc8/v2.46/pic/sources/c99/pic/__eeprom.c: 19:  __memcpyee(addr,(unsigned char *) &data,3
      +                          );
  3466     0558  3001               	movlw	1
  3467     0559  0791               	addwf	17,f	;volatile
  3468     055A  3000               	movlw	0
  3469     055B  3D92               	addwfc	18,f	;volatile
  3470     055C                     l1405:
  3471                           
  3472                           ;/opt/microchip/xc8/v2.46/pic/sources/c99/pic/__eeprom.c: 12:  while(size--) {;/opt/micr
      +                          ochip/xc8/v2.46/pic/sources/c99/pic/__eeprom.c: 12: };/opt/microchip/xc8/v2.46/pic/sourc
      +                          es/c99/pic/__eeprom.c: 12:  __eecpymem((unsigned char *) &data,addr,4);
  3473     055C  3001               	movlw	1
  3474     055D  02F1               	subwf	___eecpymem@size,f
  3475     055E  0A71               	incf	___eecpymem@size,w
  3476     055F  1D03               	btfss	3,2
  3477     0560  2D62               	goto	u561
  3478     0561  2D63               	goto	u560
  3479     0562                     u561:
  3480     0562  2D46               	goto	l329
  3481     0563                     u560:
  3482     0563                     l333:
  3483     0563  0008               	return
  3484     0564                     __end_of___eecpymem:
  3485                           
  3486                           	psect	text11
  3487     04BD                     __ptext11:	
  3488 ;; *************** function ___bmul *****************
  3489 ;; Defined at:
  3490 ;;		line 4 in file "/opt/microchip/xc8/v2.46/pic/sources/c99/common/Umul8.c"
  3491 ;; Parameters:    Size  Location     Type
  3492 ;;  multiplier      1    wreg     unsigned char 
  3493 ;;  multiplicand    1    0[COMMON] unsigned char 
  3494 ;; Auto vars:     Size  Location     Type
  3495 ;;  multiplier      1    3[COMMON] unsigned char 
  3496 ;;  product         1    2[COMMON] unsigned char 
  3497 ;; Return value:  Size  Location     Type
  3498 ;;                  1    wreg      unsigned char 
  3499 ;; Registers used:
  3500 ;;		wreg, status,2, status,0
  3501 ;; Tracked objects:
  3502 ;;		On entry : 0/0
  3503 ;;		On exit  : 0/0
  3504 ;;		Unchanged: 0/0
  3505 ;; Data sizes:     COMMON   BANK0   BANK1   BANK2   BANK3   BANK4
  3506 ;;      Params:         1       0       0       0       0       0
  3507 ;;      Locals:         2       0       0       0       0       0
  3508 ;;      Temps:          1       0       0       0       0       0
  3509 ;;      Totals:         4       0       0       0       0       0
  3510 ;;Total ram usage:        4 bytes
  3511 ;; Hardware stack levels used: 1
  3512 ;; This function calls:
  3513 ;;		Nothing
  3514 ;; This function is called by:
  3515 ;;		_enviaNomes
  3516 ;;		_recebeGuardaNome
  3517 ;;		_analisaRx
  3518 ;; This function uses a non-reentrant model
  3519 ;;
  3520                           
  3521     04BD                     ___bmul:	
  3522                           ;psect for function ___bmul
  3523                           
  3524                           
  3525                           ;incstack = 0
  3526                           ; Regs used in ___bmul: [wreg+status,2+status,0]
  3527                           ;___bmul@multiplier stored from wreg
  3528     04BD  00F3               	movwf	___bmul@multiplier
  3529     04BE                     l1479:
  3530     04BE  01F2               	clrf	___bmul@product
  3531     04BF                     l1481:
  3532     04BF  1C73               	btfss	___bmul@multiplier,0
  3533     04C0  2CC2               	goto	u651
  3534     04C1  2CC3               	goto	u650
  3535     04C2                     u651:
  3536     04C2  2CC7               	goto	l1485
  3537     04C3                     u650:
  3538     04C3                     l1483:
  3539     04C3  0870               	movf	___bmul@multiplicand,w
  3540     04C4  00F1               	movwf	??___bmul
  3541     04C5  0871               	movf	??___bmul,w
  3542     04C6  07F2               	addwf	___bmul@product,f
  3543     04C7                     l1485:
  3544     04C7  1003               	clrc
  3545     04C8  0DF0               	rlf	___bmul@multiplicand,f
  3546     04C9                     l1487:
  3547     04C9  1003               	clrc
  3548     04CA  0CF3               	rrf	___bmul@multiplier,f
  3549     04CB  0873               	movf	___bmul@multiplier,w
  3550     04CC  1D03               	btfss	3,2
  3551     04CD  2CCF               	goto	u661
  3552     04CE  2CD0               	goto	u660
  3553     04CF                     u661:
  3554     04CF  2CBF               	goto	l1481
  3555     04D0                     u660:
  3556     04D0                     l1489:
  3557     04D0  0872               	movf	___bmul@product,w
  3558     04D1                     l483:
  3559     04D1  0008               	return
  3560     04D2                     __end_of___bmul:
  3561                           
  3562                           	psect	text12
  3563     0476                     __ptext12:	
  3564 ;; *************** function _EUSART_Write *****************
  3565 ;; Defined at:
  3566 ;;		line 132 in file "mcc_generated_files/eusart.c"
  3567 ;; Parameters:    Size  Location     Type
  3568 ;;  txData          1    wreg     unsigned char 
  3569 ;; Auto vars:     Size  Location     Type
  3570 ;;  txData          1    0[COMMON] unsigned char 
  3571 ;; Return value:  Size  Location     Type
  3572 ;;                  1    wreg      void 
  3573 ;; Registers used:
  3574 ;;		wreg
  3575 ;; Tracked objects:
  3576 ;;		On entry : 0/0
  3577 ;;		On exit  : 0/0
  3578 ;;		Unchanged: 0/0
  3579 ;; Data sizes:     COMMON   BANK0   BANK1   BANK2   BANK3   BANK4
  3580 ;;      Params:         0       0       0       0       0       0
  3581 ;;      Locals:         1       0       0       0       0       0
  3582 ;;      Temps:          0       0       0       0       0       0
  3583 ;;      Totals:         1       0       0       0       0       0
  3584 ;;Total ram usage:        1 bytes
  3585 ;; Hardware stack levels used: 1
  3586 ;; This function calls:
  3587 ;;		Nothing
  3588 ;; This function is called by:
  3589 ;;		_enviaMsg
  3590 ;;		_enviaNomes
  3591 ;;		_analisaRx
  3592 ;; This function uses a non-reentrant model
  3593 ;;
  3594                           
  3595     0476                     _EUSART_Write:	
  3596                           ;psect for function _EUSART_Write
  3597                           
  3598                           
  3599                           ;incstack = 0
  3600                           ; Regs used in _EUSART_Write: [wreg]
  3601                           ;EUSART_Write@txData stored from wreg
  3602     0476  00F0               	movwf	EUSART_Write@txData
  3603     0477                     l1387:
  3604     0477                     l117:	
  3605                           ;mcc_generated_files/eusart.c: 135:     {;mcc_generated_files/eusart.c: 136:     }
  3606                           
  3607                           
  3608                           ;mcc_generated_files/eusart.c: 134:     while(0 == PIR1bits.TXIF)
  3609     0477  0020               	movlb	0	; select bank0
  3610     0478  1E11               	btfss	17,4	;volatile
  3611     0479  2C7B               	goto	u531
  3612     047A  2C7C               	goto	u530
  3613     047B                     u531:
  3614     047B  2C77               	goto	l117
  3615     047C                     u530:
  3616     047C                     l1389:
  3617                           
  3618                           ;mcc_generated_files/eusart.c: 138:     TXREG = txData;
  3619     047C  0870               	movf	EUSART_Write@txData,w
  3620     047D  0023               	movlb	3	; select bank3
  3621     047E  009A               	movwf	26	;volatile
  3622     047F                     l120:
  3623     047F  0008               	return
  3624     0480                     __end_of_EUSART_Write:
  3625                           
  3626                           	psect	text13
  3627     04A1                     __ptext13:	
  3628 ;; *************** function _SYSTEM_Initialize *****************
  3629 ;; Defined at:
  3630 ;;		line 50 in file "mcc_generated_files/mcc.c"
  3631 ;; Parameters:    Size  Location     Type
  3632 ;;		None
  3633 ;; Auto vars:     Size  Location     Type
  3634 ;;		None
  3635 ;; Return value:  Size  Location     Type
  3636 ;;                  1    wreg      void 
  3637 ;; Registers used:
  3638 ;;		wreg, status,2, status,0, pclath, cstack
  3639 ;; Tracked objects:
  3640 ;;		On entry : 0/0
  3641 ;;		On exit  : 0/0
  3642 ;;		Unchanged: 0/0
  3643 ;; Data sizes:     COMMON   BANK0   BANK1   BANK2   BANK3   BANK4
  3644 ;;      Params:         0       0       0       0       0       0
  3645 ;;      Locals:         0       0       0       0       0       0
  3646 ;;      Temps:          0       0       0       0       0       0
  3647 ;;      Totals:         0       0       0       0       0       0
  3648 ;;Total ram usage:        0 bytes
  3649 ;; Hardware stack levels used: 1
  3650 ;; Hardware stack levels required when called: 2
  3651 ;; This function calls:
  3652 ;;		_EUSART_Initialize
  3653 ;;		_OSCILLATOR_Initialize
  3654 ;;		_PIN_MANAGER_Initialize
  3655 ;;		_WDT_Initialize
  3656 ;; This function is called by:
  3657 ;;		_main
  3658 ;; This function uses a non-reentrant model
  3659 ;;
  3660                           
  3661     04A1                     _SYSTEM_Initialize:	
  3662                           ;psect for function _SYSTEM_Initialize
  3663                           
  3664     04A1                     l1595:	
  3665                           ;incstack = 0
  3666                           ; Regs used in _SYSTEM_Initialize: [wreg+status,2+status,0+pclath+cstack]
  3667                           
  3668                           
  3669                           ;mcc_generated_files/mcc.c: 53:     PIN_MANAGER_Initialize();
  3670     04A1  3184  24D2  3184   	fcall	_PIN_MANAGER_Initialize
  3671                           
  3672                           ;mcc_generated_files/mcc.c: 54:     OSCILLATOR_Initialize();
  3673     04A4  3184  2495  3184   	fcall	_OSCILLATOR_Initialize
  3674                           
  3675                           ;mcc_generated_files/mcc.c: 55:     WDT_Initialize();
  3676     04A7  3184  2455  3184   	fcall	_WDT_Initialize
  3677                           
  3678                           ;mcc_generated_files/mcc.c: 56:     EUSART_Initialize();
  3679     04AA  3184  24EA  3184   	fcall	_EUSART_Initialize
  3680     04AD                     l159:
  3681     04AD  0008               	return
  3682     04AE                     __end_of_SYSTEM_Initialize:
  3683                           
  3684                           	psect	text14
  3685     0455                     __ptext14:	
  3686 ;; *************** function _WDT_Initialize *****************
  3687 ;; Defined at:
  3688 ;;		line 73 in file "mcc_generated_files/mcc.c"
  3689 ;; Parameters:    Size  Location     Type
  3690 ;;		None
  3691 ;; Auto vars:     Size  Location     Type
  3692 ;;		None
  3693 ;; Return value:  Size  Location     Type
  3694 ;;                  1    wreg      void 
  3695 ;; Registers used:
  3696 ;;		wreg
  3697 ;; Tracked objects:
  3698 ;;		On entry : 0/0
  3699 ;;		On exit  : 0/0
  3700 ;;		Unchanged: 0/0
  3701 ;; Data sizes:     COMMON   BANK0   BANK1   BANK2   BANK3   BANK4
  3702 ;;      Params:         0       0       0       0       0       0
  3703 ;;      Locals:         0       0       0       0       0       0
  3704 ;;      Temps:          0       0       0       0       0       0
  3705 ;;      Totals:         0       0       0       0       0       0
  3706 ;;Total ram usage:        0 bytes
  3707 ;; Hardware stack levels used: 1
  3708 ;; This function calls:
  3709 ;;		Nothing
  3710 ;; This function is called by:
  3711 ;;		_SYSTEM_Initialize
  3712 ;; This function uses a non-reentrant model
  3713 ;;
  3714                           
  3715     0455                     _WDT_Initialize:	
  3716                           ;psect for function _WDT_Initialize
  3717                           
  3718     0455                     l1527:	
  3719                           ;incstack = 0
  3720                           ; Regs used in _WDT_Initialize: [wreg]
  3721                           
  3722                           
  3723                           ;mcc_generated_files/mcc.c: 76:     WDTCON = 0x16;
  3724     0455  3016               	movlw	22
  3725     0456  0021               	movlb	1	; select bank1
  3726     0457  0097               	movwf	23	;volatile
  3727     0458                     l168:
  3728     0458  0008               	return
  3729     0459                     __end_of_WDT_Initialize:
  3730                           
  3731                           	psect	text15
  3732     04D2                     __ptext15:	
  3733 ;; *************** function _PIN_MANAGER_Initialize *****************
  3734 ;; Defined at:
  3735 ;;		line 55 in file "mcc_generated_files/pin_manager.c"
  3736 ;; Parameters:    Size  Location     Type
  3737 ;;		None
  3738 ;; Auto vars:     Size  Location     Type
  3739 ;;		None
  3740 ;; Return value:  Size  Location     Type
  3741 ;;                  1    wreg      void 
  3742 ;; Registers used:
  3743 ;;		wreg, status,2
  3744 ;; Tracked objects:
  3745 ;;		On entry : 0/0
  3746 ;;		On exit  : 0/0
  3747 ;;		Unchanged: 0/0
  3748 ;; Data sizes:     COMMON   BANK0   BANK1   BANK2   BANK3   BANK4
  3749 ;;      Params:         0       0       0       0       0       0
  3750 ;;      Locals:         0       0       0       0       0       0
  3751 ;;      Temps:          0       0       0       0       0       0
  3752 ;;      Totals:         0       0       0       0       0       0
  3753 ;;Total ram usage:        0 bytes
  3754 ;; Hardware stack levels used: 1
  3755 ;; This function calls:
  3756 ;;		Nothing
  3757 ;; This function is called by:
  3758 ;;		_SYSTEM_Initialize
  3759 ;; This function uses a non-reentrant model
  3760 ;;
  3761                           
  3762     04D2                     _PIN_MANAGER_Initialize:	
  3763                           ;psect for function _PIN_MANAGER_Initialize
  3764                           
  3765     04D2                     l1505:	
  3766                           ;incstack = 0
  3767                           ; Regs used in _PIN_MANAGER_Initialize: [wreg+status,2]
  3768                           
  3769                           
  3770                           ;mcc_generated_files/pin_manager.c: 60:     LATA = 0x00;
  3771     04D2  0022               	movlb	2	; select bank2
  3772     04D3  018C               	clrf	12	;volatile
  3773                           
  3774                           ;mcc_generated_files/pin_manager.c: 61:     LATB = 0x00;
  3775     04D4  018D               	clrf	13	;volatile
  3776     04D5                     l1507:
  3777                           
  3778                           ;mcc_generated_files/pin_manager.c: 66:     TRISA = 0xFF;
  3779     04D5  30FF               	movlw	255
  3780     04D6  0021               	movlb	1	; select bank1
  3781     04D7  008C               	movwf	12	;volatile
  3782     04D8                     l1509:
  3783                           
  3784                           ;mcc_generated_files/pin_manager.c: 67:     TRISB = 0xFF;
  3785     04D8  30FF               	movlw	255
  3786     04D9  008D               	movwf	13	;volatile
  3787     04DA                     l1511:
  3788                           
  3789                           ;mcc_generated_files/pin_manager.c: 72:     ANSELB = 0xDA;
  3790     04DA  30DA               	movlw	218
  3791     04DB  0023               	movlb	3	; select bank3
  3792     04DC  008D               	movwf	13	;volatile
  3793     04DD                     l1513:
  3794                           
  3795                           ;mcc_generated_files/pin_manager.c: 73:     ANSELA = 0x1F;
  3796     04DD  301F               	movlw	31
  3797     04DE  008C               	movwf	12	;volatile
  3798                           
  3799                           ;mcc_generated_files/pin_manager.c: 78:     WPUB = 0x00;
  3800     04DF  0024               	movlb	4	; select bank4
  3801     04E0  018D               	clrf	13	;volatile
  3802                           
  3803                           ;mcc_generated_files/pin_manager.c: 79:     WPUA = 0x00;
  3804     04E1  018C               	clrf	12	;volatile
  3805     04E2                     l1515:
  3806                           
  3807                           ;mcc_generated_files/pin_manager.c: 80:     OPTION_REGbits.nWPUEN = 1;
  3808     04E2  0021               	movlb	1	; select bank1
  3809     04E3  1795               	bsf	21,7	;volatile
  3810     04E4                     l1517:
  3811                           
  3812                           ;mcc_generated_files/pin_manager.c: 86:     APFCON0 = 0x80;
  3813     04E4  3080               	movlw	128
  3814     04E5  0022               	movlb	2	; select bank2
  3815     04E6  009D               	movwf	29	;volatile
  3816     04E7                     l1519:
  3817                           
  3818                           ;mcc_generated_files/pin_manager.c: 87:     APFCON1 = 0x01;
  3819     04E7  3001               	movlw	1
  3820     04E8  009E               	movwf	30	;volatile
  3821     04E9                     l193:
  3822     04E9  0008               	return
  3823     04EA                     __end_of_PIN_MANAGER_Initialize:
  3824                           
  3825                           	psect	text16
  3826     0495                     __ptext16:	
  3827 ;; *************** function _OSCILLATOR_Initialize *****************
  3828 ;; Defined at:
  3829 ;;		line 59 in file "mcc_generated_files/mcc.c"
  3830 ;; Parameters:    Size  Location     Type
  3831 ;;		None
  3832 ;; Auto vars:     Size  Location     Type
  3833 ;;		None
  3834 ;; Return value:  Size  Location     Type
  3835 ;;                  1    wreg      void 
  3836 ;; Registers used:
  3837 ;;		wreg, status,2
  3838 ;; Tracked objects:
  3839 ;;		On entry : 0/0
  3840 ;;		On exit  : 0/0
  3841 ;;		Unchanged: 0/0
  3842 ;; Data sizes:     COMMON   BANK0   BANK1   BANK2   BANK3   BANK4
  3843 ;;      Params:         0       0       0       0       0       0
  3844 ;;      Locals:         0       0       0       0       0       0
  3845 ;;      Temps:          0       0       0       0       0       0
  3846 ;;      Totals:         0       0       0       0       0       0
  3847 ;;Total ram usage:        0 bytes
  3848 ;; Hardware stack levels used: 1
  3849 ;; This function calls:
  3850 ;;		Nothing
  3851 ;; This function is called by:
  3852 ;;		_SYSTEM_Initialize
  3853 ;; This function uses a non-reentrant model
  3854 ;;
  3855                           
  3856     0495                     _OSCILLATOR_Initialize:	
  3857                           ;psect for function _OSCILLATOR_Initialize
  3858                           
  3859     0495                     l1521:	
  3860                           ;incstack = 0
  3861                           ; Regs used in _OSCILLATOR_Initialize: [wreg+status,2]
  3862                           
  3863                           
  3864                           ;mcc_generated_files/mcc.c: 62:     OSCCON = 0x70;
  3865     0495  3070               	movlw	112
  3866     0496  0021               	movlb	1	; select bank1
  3867     0497  0099               	movwf	25	;volatile
  3868     0498                     l1523:
  3869                           
  3870                           ;mcc_generated_files/mcc.c: 64:     OSCTUNE = 0x00;
  3871     0498  0198               	clrf	24	;volatile
  3872     0499                     l1525:
  3873                           
  3874                           ;mcc_generated_files/mcc.c: 66:     BORCON = 0x00;
  3875     0499  0022               	movlb	2	; select bank2
  3876     049A  0196               	clrf	22	;volatile
  3877     049B                     l162:	
  3878                           ;mcc_generated_files/mcc.c: 69:     {;mcc_generated_files/mcc.c: 70:     }
  3879                           
  3880                           
  3881                           ;mcc_generated_files/mcc.c: 68:     while(PLLR == 0)
  3882     049B  0021               	movlb	1	; select bank1
  3883     049C  1F1A               	btfss	26,6	;volatile
  3884     049D  2C9F               	goto	u671
  3885     049E  2CA0               	goto	u670
  3886     049F                     u671:
  3887     049F  2C9B               	goto	l162
  3888     04A0                     u670:
  3889     04A0                     l165:
  3890     04A0  0008               	return
  3891     04A1                     __end_of_OSCILLATOR_Initialize:
  3892                           
  3893                           	psect	text17
  3894     04EA                     __ptext17:	
  3895 ;; *************** function _EUSART_Initialize *****************
  3896 ;; Defined at:
  3897 ;;		line 66 in file "mcc_generated_files/eusart.c"
  3898 ;; Parameters:    Size  Location     Type
  3899 ;;		None
  3900 ;; Auto vars:     Size  Location     Type
  3901 ;;		None
  3902 ;; Return value:  Size  Location     Type
  3903 ;;                  1    wreg      void 
  3904 ;; Registers used:
  3905 ;;		wreg, status,2, status,0, pclath, cstack
  3906 ;; Tracked objects:
  3907 ;;		On entry : 0/0
  3908 ;;		On exit  : 0/0
  3909 ;;		Unchanged: 0/0
  3910 ;; Data sizes:     COMMON   BANK0   BANK1   BANK2   BANK3   BANK4
  3911 ;;      Params:         0       0       0       0       0       0
  3912 ;;      Locals:         0       0       0       0       0       0
  3913 ;;      Temps:          0       0       0       0       0       0
  3914 ;;      Totals:         0       0       0       0       0       0
  3915 ;;Total ram usage:        0 bytes
  3916 ;; Hardware stack levels used: 1
  3917 ;; Hardware stack levels required when called: 1
  3918 ;; This function calls:
  3919 ;;		_EUSART_SetErrorHandler
  3920 ;;		_EUSART_SetFramingErrorHandler
  3921 ;;		_EUSART_SetOverrunErrorHandler
  3922 ;; This function is called by:
  3923 ;;		_SYSTEM_Initialize
  3924 ;; This function uses a non-reentrant model
  3925 ;;
  3926                           
  3927     04EA                     _EUSART_Initialize:	
  3928                           ;psect for function _EUSART_Initialize
  3929                           
  3930     04EA                     l1493:	
  3931                           ;incstack = 0
  3932                           ; Regs used in _EUSART_Initialize: [wreg+status,2+status,0+pclath+cstack]
  3933                           
  3934                           
  3935                           ;mcc_generated_files/eusart.c: 71:     BAUDCON = 0x08;
  3936     04EA  3008               	movlw	8
  3937     04EB  0023               	movlb	3	; select bank3
  3938     04EC  009F               	movwf	31	;volatile
  3939                           
  3940                           ;mcc_generated_files/eusart.c: 74:     RCSTA = 0x90;
  3941     04ED  3090               	movlw	144
  3942     04EE  009D               	movwf	29	;volatile
  3943                           
  3944                           ;mcc_generated_files/eusart.c: 77:     TXSTA = 0x24;
  3945     04EF  3024               	movlw	36
  3946     04F0  009E               	movwf	30	;volatile
  3947                           
  3948                           ;mcc_generated_files/eusart.c: 80:     SPBRGL = 0x8A;
  3949     04F1  308A               	movlw	138
  3950     04F2  009B               	movwf	27	;volatile
  3951     04F3                     l1495:
  3952                           
  3953                           ;mcc_generated_files/eusart.c: 83:     SPBRGH = 0x00;
  3954     04F3  019C               	clrf	28	;volatile
  3955     04F4                     l1497:
  3956                           
  3957                           ;mcc_generated_files/eusart.c: 86:     EUSART_SetFramingErrorHandler(EUSART_DefaultFrami
      +                          ngErrorHandler);
  3958     04F4  3000               	movlw	0
  3959     04F5  00F0               	movwf	EUSART_SetFramingErrorHandler@interruptHandler
  3960     04F6  3000               	movlw	0
  3961     04F7  00F1               	movwf	EUSART_SetFramingErrorHandler@interruptHandler+1
  3962     04F8  3184  2464  3184   	fcall	_EUSART_SetFramingErrorHandler
  3963     04FB                     l1499:
  3964                           
  3965                           ;mcc_generated_files/eusart.c: 87:     EUSART_SetOverrunErrorHandler(EUSART_DefaultOverr
      +                          unErrorHandler);
  3966     04FB  3000               	movlw	0
  3967     04FC  00F0               	movwf	EUSART_SetOverrunErrorHandler@interruptHandler
  3968     04FD  3000               	movlw	0
  3969     04FE  00F1               	movwf	EUSART_SetOverrunErrorHandler@interruptHandler+1
  3970     04FF  3184  246A  3184   	fcall	_EUSART_SetOverrunErrorHandler
  3971     0502                     l1501:
  3972                           
  3973                           ;mcc_generated_files/eusart.c: 88:     EUSART_SetErrorHandler(EUSART_DefaultErrorHandler
      +                          );
  3974     0502  3000               	movlw	0
  3975     0503  00F0               	movwf	EUSART_SetErrorHandler@interruptHandler
  3976     0504  3000               	movlw	0
  3977     0505  00F1               	movwf	EUSART_SetErrorHandler@interruptHandler+1
  3978     0506  3184  245E  3184   	fcall	_EUSART_SetErrorHandler
  3979     0509                     l1503:
  3980                           
  3981                           ;mcc_generated_files/eusart.c: 90:     eusartRxLastError.status = 0;
  3982     0509  0020               	movlb	0	; select bank0
  3983     050A  01BD               	clrf	_eusartRxLastError	;volatile
  3984     050B                     l93:
  3985     050B  0008               	return
  3986     050C                     __end_of_EUSART_Initialize:
  3987                           
  3988                           	psect	text18
  3989     046A                     __ptext18:	
  3990 ;; *************** function _EUSART_SetOverrunErrorHandler *****************
  3991 ;; Defined at:
  3992 ;;		line 161 in file "mcc_generated_files/eusart.c"
  3993 ;; Parameters:    Size  Location     Type
  3994 ;;  interruptHan    2    0[COMMON] PTR FTN()void 
  3995 ;;		 -> EUSART_DefaultOverrunErrorHandler(1), 
  3996 ;; Auto vars:     Size  Location     Type
  3997 ;;		None
  3998 ;; Return value:  Size  Location     Type
  3999 ;;                  1    wreg      void 
  4000 ;; Registers used:
  4001 ;;		wreg
  4002 ;; Tracked objects:
  4003 ;;		On entry : 0/0
  4004 ;;		On exit  : 0/0
  4005 ;;		Unchanged: 0/0
  4006 ;; Data sizes:     COMMON   BANK0   BANK1   BANK2   BANK3   BANK4
  4007 ;;      Params:         2       0       0       0       0       0
  4008 ;;      Locals:         0       0       0       0       0       0
  4009 ;;      Temps:          0       0       0       0       0       0
  4010 ;;      Totals:         2       0       0       0       0       0
  4011 ;;Total ram usage:        2 bytes
  4012 ;; Hardware stack levels used: 1
  4013 ;; This function calls:
  4014 ;;		Nothing
  4015 ;; This function is called by:
  4016 ;;		_EUSART_Initialize
  4017 ;; This function uses a non-reentrant model
  4018 ;;
  4019                           
  4020     046A                     _EUSART_SetOverrunErrorHandler:	
  4021                           ;psect for function _EUSART_SetOverrunErrorHandler
  4022                           
  4023     046A                     l1439:	
  4024                           ;incstack = 0
  4025                           ; Regs used in _EUSART_SetOverrunErrorHandler: [wreg]
  4026                           
  4027                           
  4028                           ;mcc_generated_files/eusart.c: 162:     EUSART_OverrunErrorHandler = interruptHandler;
  4029     046A  0871               	movf	EUSART_SetOverrunErrorHandler@interruptHandler+1,w
  4030     046B  0020               	movlb	0	; select bank0
  4031     046C  00B8               	movwf	_EUSART_OverrunErrorHandler+1
  4032     046D  0870               	movf	EUSART_SetOverrunErrorHandler@interruptHandler,w
  4033     046E  00B7               	movwf	_EUSART_OverrunErrorHandler
  4034     046F                     l135:
  4035     046F  0008               	return
  4036     0470                     __end_of_EUSART_SetOverrunErrorHandler:
  4037                           
  4038                           	psect	text19
  4039     0464                     __ptext19:	
  4040 ;; *************** function _EUSART_SetFramingErrorHandler *****************
  4041 ;; Defined at:
  4042 ;;		line 157 in file "mcc_generated_files/eusart.c"
  4043 ;; Parameters:    Size  Location     Type
  4044 ;;  interruptHan    2    0[COMMON] PTR FTN()void 
  4045 ;;		 -> EUSART_DefaultFramingErrorHandler(1), 
  4046 ;; Auto vars:     Size  Location     Type
  4047 ;;		None
  4048 ;; Return value:  Size  Location     Type
  4049 ;;                  1    wreg      void 
  4050 ;; Registers used:
  4051 ;;		wreg
  4052 ;; Tracked objects:
  4053 ;;		On entry : 0/0
  4054 ;;		On exit  : 0/0
  4055 ;;		Unchanged: 0/0
  4056 ;; Data sizes:     COMMON   BANK0   BANK1   BANK2   BANK3   BANK4
  4057 ;;      Params:         2       0       0       0       0       0
  4058 ;;      Locals:         0       0       0       0       0       0
  4059 ;;      Temps:          0       0       0       0       0       0
  4060 ;;      Totals:         2       0       0       0       0       0
  4061 ;;Total ram usage:        2 bytes
  4062 ;; Hardware stack levels used: 1
  4063 ;; This function calls:
  4064 ;;		Nothing
  4065 ;; This function is called by:
  4066 ;;		_EUSART_Initialize
  4067 ;; This function uses a non-reentrant model
  4068 ;;
  4069                           
  4070     0464                     _EUSART_SetFramingErrorHandler:	
  4071                           ;psect for function _EUSART_SetFramingErrorHandler
  4072                           
  4073     0464                     l1437:	
  4074                           ;incstack = 0
  4075                           ; Regs used in _EUSART_SetFramingErrorHandler: [wreg]
  4076                           
  4077                           
  4078                           ;mcc_generated_files/eusart.c: 158:     EUSART_FramingErrorHandler = interruptHandler;
  4079     0464  0871               	movf	EUSART_SetFramingErrorHandler@interruptHandler+1,w
  4080     0465  0020               	movlb	0	; select bank0
  4081     0466  00BA               	movwf	_EUSART_FramingErrorHandler+1
  4082     0467  0870               	movf	EUSART_SetFramingErrorHandler@interruptHandler,w
  4083     0468  00B9               	movwf	_EUSART_FramingErrorHandler
  4084     0469                     l132:
  4085     0469  0008               	return
  4086     046A                     __end_of_EUSART_SetFramingErrorHandler:
  4087                           
  4088                           	psect	text20
  4089     045E                     __ptext20:	
  4090 ;; *************** function _EUSART_SetErrorHandler *****************
  4091 ;; Defined at:
  4092 ;;		line 165 in file "mcc_generated_files/eusart.c"
  4093 ;; Parameters:    Size  Location     Type
  4094 ;;  interruptHan    2    0[COMMON] PTR FTN()void 
  4095 ;;		 -> EUSART_DefaultErrorHandler(1), 
  4096 ;; Auto vars:     Size  Location     Type
  4097 ;;		None
  4098 ;; Return value:  Size  Location     Type
  4099 ;;                  1    wreg      void 
  4100 ;; Registers used:
  4101 ;;		wreg
  4102 ;; Tracked objects:
  4103 ;;		On entry : 0/0
  4104 ;;		On exit  : 0/0
  4105 ;;		Unchanged: 0/0
  4106 ;; Data sizes:     COMMON   BANK0   BANK1   BANK2   BANK3   BANK4
  4107 ;;      Params:         2       0       0       0       0       0
  4108 ;;      Locals:         0       0       0       0       0       0
  4109 ;;      Temps:          0       0       0       0       0       0
  4110 ;;      Totals:         2       0       0       0       0       0
  4111 ;;Total ram usage:        2 bytes
  4112 ;; Hardware stack levels used: 1
  4113 ;; This function calls:
  4114 ;;		Nothing
  4115 ;; This function is called by:
  4116 ;;		_EUSART_Initialize
  4117 ;; This function uses a non-reentrant model
  4118 ;;
  4119                           
  4120     045E                     _EUSART_SetErrorHandler:	
  4121                           ;psect for function _EUSART_SetErrorHandler
  4122                           
  4123     045E                     l1441:	
  4124                           ;incstack = 0
  4125                           ; Regs used in _EUSART_SetErrorHandler: [wreg]
  4126                           
  4127                           
  4128                           ;mcc_generated_files/eusart.c: 166:     EUSART_ErrorHandler = interruptHandler;
  4129     045E  0871               	movf	EUSART_SetErrorHandler@interruptHandler+1,w
  4130     045F  0020               	movlb	0	; select bank0
  4131     0460  00B6               	movwf	_EUSART_ErrorHandler+1
  4132     0461  0870               	movf	EUSART_SetErrorHandler@interruptHandler,w
  4133     0462  00B5               	movwf	_EUSART_ErrorHandler
  4134     0463                     l138:
  4135     0463  0008               	return
  4136     0464                     __end_of_EUSART_SetErrorHandler:
  4137     007E                     btemp	set	126	;btemp
  4138     007E                     wtemp0	set	126
  4139                           
  4140                           	psect	config
  4141                           
  4142                           ;Config register CONFIG1 @ 0x8007
  4143                           ;	Oscillator Selection
  4144                           ;	FOSC = INTOSC, INTOSC oscillator: I/O function on CLKIN pin
  4145                           ;	Watchdog Timer Enable
  4146                           ;	WDTE = OFF, WDT disabled
  4147                           ;	Power-up Timer Enable
  4148                           ;	PWRTE = OFF, PWRT disabled
  4149                           ;	MCLR Pin Function Select
  4150                           ;	MCLRE = ON, MCLR/VPP pin function is MCLR
  4151                           ;	Flash Program Memory Code Protection
  4152                           ;	CP = OFF, Program memory code protection is disabled
  4153                           ;	Data Memory Code Protection
  4154                           ;	CPD = OFF, Data memory code protection is disabled
  4155                           ;	Brown-out Reset Enable
  4156                           ;	BOREN = ON, Brown-out Reset enabled
  4157                           ;	Clock Out Enable
  4158                           ;	CLKOUTEN = OFF, CLKOUT function is disabled. I/O or oscillator function on the CLKOUT 
      +                          pin
  4159                           ;	Internal/External Switchover
  4160                           ;	IESO = ON, Internal/External Switchover mode is enabled
  4161                           ;	Fail-Safe Clock Monitor Enable
  4162                           ;	FCMEN = ON, Fail-Safe Clock Monitor is enabled
  4163     8007                     	org	32775
  4164     8007  3FE4               	dw	16356
  4165                           
  4166                           ;Config register CONFIG2 @ 0x8008
  4167                           ;	Flash Memory Self-Write Protection
  4168                           ;	WRT = OFF, Write protection off
  4169                           ;	PLL Enable
  4170                           ;	PLLEN = ON, 4x PLL enabled
  4171                           ;	Stack Overflow/Underflow Reset Enable
  4172                           ;	STVREN = ON, Stack Overflow or Underflow will cause a Reset
  4173                           ;	Brown-out Reset Voltage Selection
  4174                           ;	BORV = LO, Brown-out Reset Voltage (Vbor), low trip point selected.
  4175                           ;	In-Circuit Debugger Mode
  4176                           ;	DEBUG = 0x1, unprogrammed default
  4177                           ;	Low-Voltage Programming Enable
  4178                           ;	LVP = ON, Low-voltage programming enabled
  4179     8008                     	org	32776
  4180     8008  3FFF               	dw	16383

Data Sizes:
    Strings     0
    Constant    236
    Data        0
    BSS         251
    Persistent  32
    Stack       0

Auto Spaces:
    Space          Size  Autos    Used
    COMMON           14     13      14
    BANK0            80     12      42
    BANK1            80      0       0
    BANK2            80      0       0
    BANK3            80      0       0
    BANK4            48      0       0

Pointer List with Targets:

    __eecpymem@cp	PTR volatile unsigned char  size(1) Largest target is 8
		 -> __eetoc@data(COMMON[1]), __eetofl@data(COMMON[4]), __eetoft@data(COMMON[4]), __eetoi@data(COMMON[2]), 
		 -> __eetol@data(COMMON[4]), __eetom@data(COMMON[3]), __eetoo@data(COMMON[8]), 

    __eecpymem@from	PTR eeprom unsigned char  size(1) Largest target is 220
		 -> ee(EEDATA[220]), 

    __eecpymem@to	PTR volatile unsigned char  size(1) Largest target is 8
		 -> __eetoc@data(COMMON[1]), __eetofl@data(COMMON[4]), __eetoft@data(COMMON[4]), __eetoi@data(COMMON[2]), 
		 -> __eetol@data(COMMON[4]), __eetom@data(COMMON[3]), __eetoo@data(COMMON[8]), 

    enviaMsg@msg	PTR const unsigned char  size(2) Largest target is 38
		 -> msg1(CODE[22]), msg2(CODE[28]), msg3(CODE[9]), msg5(CODE[38]), 
		 -> msg6(CODE[38]), msg7(CODE[36]), 

    EUSART_ErrorHandler	PTR FTN()void  size(2) Largest target is 1
		 -> EUSART_DefaultErrorHandler(), NULL(), 

    EUSART_FramingErrorHandler	PTR FTN()void  size(2) Largest target is 1
		 -> EUSART_DefaultFramingErrorHandler(), NULL(), 

    EUSART_OverrunErrorHandler	PTR FTN()void  size(2) Largest target is 1
		 -> EUSART_DefaultOverrunErrorHandler(), NULL(), 

    EUSART_SetErrorHandler@interruptHandler	PTR FTN()void  size(2) Largest target is 1
		 -> EUSART_DefaultErrorHandler(), 

    EUSART_SetFramingErrorHandler@interruptHandler	PTR FTN()void  size(2) Largest target is 1
		 -> EUSART_DefaultFramingErrorHandler(), 

    EUSART_SetOverrunErrorHandler@interruptHandler	PTR FTN()void  size(2) Largest target is 1
		 -> EUSART_DefaultOverrunErrorHandler(), 

    __memcpyee@from	PTR const unsigned char  size(1) Largest target is 8
		 -> __ctoee@data(COMMON[1]), __fltoee@data(COMMON[4]), __fttoee@data(COMMON[4]), __itoee@data(COMMON[2]), 
		 -> __ltoee@data(COMMON[4]), __mtoee@data(COMMON[3]), __otoee@data(COMMON[8]), 

    __memcpyee@ptr	PTR const unsigned char  size(1) Largest target is 8
		 -> __ctoee@data(COMMON[1]), __fltoee@data(COMMON[4]), __fttoee@data(COMMON[4]), __itoee@data(COMMON[2]), 
		 -> __ltoee@data(COMMON[4]), __mtoee@data(COMMON[3]), __otoee@data(COMMON[8]), 

    __memcpyee@to	PTR eeprom unsigned char  size(1) Largest target is 220
		 -> ee(EEDATA[220]), 


Critical Paths under _main in COMMON

    _main->_analisaRx
    _analisaRx->_recebeGuardaNome
    _recebeGuardaNome->___ctoee
    _enviaMsg->_EUSART_Write
    ___ctoee->___memcpyee
    _enviaNomes->___eetoc
    ___eetoc->___eecpymem
    _EUSART_Initialize->_EUSART_SetErrorHandler
    _EUSART_Initialize->_EUSART_SetFramingErrorHandler
    _EUSART_Initialize->_EUSART_SetOverrunErrorHandler

Critical Paths under _main in BANK0

    _main->_analisaRx
    _analisaRx->_enviaNomes

Critical Paths under _main in BANK1

    None.

Critical Paths under _main in BANK2

    None.

Critical Paths under _main in BANK3

    None.

Critical Paths under _main in BANK4

    None.

Call Graph Tables:

 ---------------------------------------------------------------------------------
 (Depth) Function   	        Calls       Base Space   Used Autos Params    Refs
 ---------------------------------------------------------------------------------
 (0) _main                                                 1     1      0    9475
                                             12 COMMON     1     1      0
                        _EUSART_Read
                 _EUSART_is_rx_ready
                  _SYSTEM_Initialize
                          _analisaRx
 ---------------------------------------------------------------------------------
 (1) _analisaRx                                            7     7      0    9048
                                             11 COMMON     1     1      0
                                              6 BANK0      6     6      0
                       _EUSART_Write
                             ___bmul
                            ___ctoee
                            ___eetoc
                           _enviaMsg
                         _enviaNomes
                   _recebeGuardaNome
 ---------------------------------------------------------------------------------
 (2) _recebeGuardaNome                                     3     3      0    2691
                                              8 COMMON     3     3      0
                        _EUSART_Read
                 _EUSART_is_rx_ready
                             ___bmul
                            ___ctoee
                           _enviaMsg
 ---------------------------------------------------------------------------------
 (3) _enviaMsg                                             6     4      2     568
                                              1 COMMON     6     4      2
                       _EUSART_Write
 ---------------------------------------------------------------------------------
 (3) ___ctoee                                              2     1      1    1580
                                              6 COMMON     2     1      1
                             ___bmul (ARG)
                         ___memcpyee
 ---------------------------------------------------------------------------------
 (4) ___memcpyee                                           6     4      2    1397
                                              0 COMMON     6     4      2
 ---------------------------------------------------------------------------------
 (3) _EUSART_is_rx_ready                                   0     0      0       0
 ---------------------------------------------------------------------------------
 (3) _EUSART_Read                                          0     0      0       0
 ---------------------------------------------------------------------------------
 (2) _enviaNomes                                           7     7      0    2126
                                              8 COMMON     1     1      0
                                              0 BANK0      6     6      0
                       _EUSART_Write
                             ___bmul
                            ___eetoc
 ---------------------------------------------------------------------------------
 (3) ___eetoc                                              2     2      0    1360
                                              6 COMMON     2     2      0
                         ___eecpymem
 ---------------------------------------------------------------------------------
 (4) ___eecpymem                                           6     4      2    1229
                                              0 COMMON     6     4      2
 ---------------------------------------------------------------------------------
 (3) ___bmul                                               4     3      1     430
                                              0 COMMON     4     3      1
 ---------------------------------------------------------------------------------
 (4) _EUSART_Write                                         1     1      0      22
                                              0 COMMON     1     1      0
 ---------------------------------------------------------------------------------
 (1) _SYSTEM_Initialize                                    0     0      0     294
                  _EUSART_Initialize
              _OSCILLATOR_Initialize
             _PIN_MANAGER_Initialize
                     _WDT_Initialize
 ---------------------------------------------------------------------------------
 (2) _WDT_Initialize                                       0     0      0       0
 ---------------------------------------------------------------------------------
 (2) _PIN_MANAGER_Initialize                               0     0      0       0
 ---------------------------------------------------------------------------------
 (2) _OSCILLATOR_Initialize                                0     0      0       0
 ---------------------------------------------------------------------------------
 (2) _EUSART_Initialize                                    0     0      0     294
             _EUSART_SetErrorHandler
      _EUSART_SetFramingErrorHandler
      _EUSART_SetOverrunErrorHandler
 ---------------------------------------------------------------------------------
 (3) _EUSART_SetOverrunErrorHandler                        2     0      2      98
                                              0 COMMON     2     0      2
 ---------------------------------------------------------------------------------
 (3) _EUSART_SetFramingErrorHandler                        2     0      2      98
                                              0 COMMON     2     0      2
 ---------------------------------------------------------------------------------
 (3) _EUSART_SetErrorHandler                               2     0      2      98
                                              0 COMMON     2     0      2
 ---------------------------------------------------------------------------------
 Estimated maximum stack depth 4
 ---------------------------------------------------------------------------------

 Call Graph Graphs:

 _main (ROOT)
   _EUSART_Read
   _EUSART_is_rx_ready
   _SYSTEM_Initialize
     _EUSART_Initialize
       _EUSART_SetErrorHandler
       _EUSART_SetFramingErrorHandler
       _EUSART_SetOverrunErrorHandler
     _OSCILLATOR_Initialize
     _PIN_MANAGER_Initialize
     _WDT_Initialize
   _analisaRx
     _EUSART_Write
     ___bmul
     ___ctoee
       ___bmul (ARG)
       ___memcpyee (ARG)
     ___eetoc
       ___eecpymem
     _enviaMsg
       _EUSART_Write
     _enviaNomes
       _EUSART_Write
       ___bmul
       ___eetoc
     _recebeGuardaNome
       _EUSART_Read
       _EUSART_is_rx_ready
       ___bmul
       ___ctoee
       _enviaMsg

 Address spaces:
Name               Size   Autos  Total    Cost      Usage
BIGRAM             170      0       0       0        0.0%
EEDATA             100      0      DC       0       85.9%
NULL                 0      0       0       0        0.0%
CODE                 0      0       0       0        0.0%
BITCOMMON            E      0       0       1        0.0%
BITSFR0              0      0       0       1        0.0%
SFR0                 0      0       0       1        0.0%
COMMON               E      D       E       2      100.0%
BITSFR1              0      0       0       2        0.0%
SFR1                 0      0       0       2        0.0%
BITSFR2              0      0       0       3        0.0%
SFR2                 0      0       0       3        0.0%
STACK                0      0       0       3        0.0%
BITSFR3              0      0       0       4        0.0%
SFR3                 0      0       0       4        0.0%
ABS                  0      0      38       4        0.0%
BITBANK0            50      0       0       5        0.0%
BITSFR4              0      0       0       5        0.0%
SFR4                 0      0       0       5        0.0%
BANK0               50      C      2A       6       52.5%
BITSFR5              0      0       0       6        0.0%
SFR5                 0      0       0       6        0.0%
BITBANK1            50      0       0       7        0.0%
BITSFR6              0      0       0       7        0.0%
SFR6                 0      0       0       7        0.0%
BANK1               50      0       0       8        0.0%
BITSFR7              0      0       0       8        0.0%
SFR7                 0      0       0       8        0.0%
BITBANK2            50      0       0       9        0.0%
BITSFR8              0      0       0       9        0.0%
SFR8                 0      0       0       9        0.0%
BANK2               50      0       0      10        0.0%
BITSFR9              0      0       0      10        0.0%
SFR9                 0      0       0      10        0.0%
BITBANK3            50      0       0      11        0.0%
BITSFR10             0      0       0      11        0.0%
SFR10                0      0       0      11        0.0%
BANK3               50      0       0      12        0.0%
BITSFR11             0      0       0      12        0.0%
SFR11                0      0       0      12        0.0%
BITBANK4            30      0       0      13        0.0%
BITSFR12             0      0       0      13        0.0%
SFR12                0      0       0      13        0.0%
BANK4               30      0       0      14        0.0%
BITSFR13             0      0       0      14        0.0%
SFR13                0      0       0      14        0.0%
BITSFR14             0      0       0      15        0.0%
SFR14                0      0       0      15        0.0%
DATA                 0      0      38      15        0.0%
BITSFR15             0      0       0      16        0.0%
SFR15                0      0       0      16        0.0%
BITSFR16             0      0       0      17        0.0%
SFR16                0      0       0      17        0.0%
BITSFR17             0      0       0      18        0.0%
SFR17                0      0       0      18        0.0%
BITSFR18             0      0       0      19        0.0%
SFR18                0      0       0      19        0.0%
BITSFR19             0      0       0      20        0.0%
SFR19                0      0       0      20        0.0%
BITSFR20             0      0       0      21        0.0%
SFR20                0      0       0      21        0.0%
BITSFR21             0      0       0      22        0.0%
SFR21                0      0       0      22        0.0%
BITSFR22             0      0       0      23        0.0%
SFR22                0      0       0      23        0.0%
BITSFR23             0      0       0      24        0.0%
SFR23                0      0       0      24        0.0%
BITSFR24             0      0       0      25        0.0%
SFR24                0      0       0      25        0.0%
BITSFR25             0      0       0      26        0.0%
SFR25                0      0       0      26        0.0%
BITSFR26             0      0       0      27        0.0%
SFR26                0      0       0      27        0.0%
BITSFR27             0      0       0      28        0.0%
SFR27                0      0       0      28        0.0%
BITSFR28             0      0       0      29        0.0%
SFR28                0      0       0      29        0.0%
BITSFR29             0      0       0      30        0.0%
SFR29                0      0       0      30        0.0%
BITSFR30             0      0       0      31        0.0%
SFR30                0      0       0      31        0.0%
BITSFR31             0      0       0      32        0.0%
SFR31                0      0       0      32        0.0%


Microchip Technology PIC Macro Assembler V2.46 build 20240104201356 
Symbol Table                                                                                   Sat Aug  3 12:55:56 2024

                               ___bmul@product 0072                                             l93 050B  
                                           _ee 0000                                enviaNomes@j_411 0040  
                                          l101 045D                                            l110 04AE  
                                          l120 047F                                            l114 04BC  
                                          l132 0469                                            l117 0477  
                                          l135 046F                                            l138 0463  
                                          l162 049B                                            l234 0535  
                                          l324 0539                                            l252 06F5  
                                          l165 04A0                                            l333 0563  
                                          l341 05B4                                            l350 0494  
                                          l159 04AD                                            l168 0458  
                                          l344 05CD                                            l336 059F  
                                          l193 04E9                                            l329 0546  
                                          l347 05E3                                            l268 063E  
                                          l365 0489                                            l293 07F3  
                                          l277 07B8                                            l298 0567  
                                          l483 04D1                                            l299 0599  
                                          u600 05DB                                            u601 05DA  
                                          u530 047C                                            u610 05E3  
                                          u531 047B                                            u611 05E2  
                                          u540 053E                                            u700 0692  
                                          u620 04B3                                            u541 053D  
                                          u701 0691                                            u621 04B2  
                                          u550 054A                                            u710 06A3  
                                          u630 04B9                                            u551 0549  
                                          u711 06A2                                            u631 04B8  
                                          u560 0563                                            u720 06D1  
                                          u640 0531                                            u800 06FD  
                                          u561 0562                                            u721 06D0  
                                          u641 0530                                            u801 06FC  
                                          u650 04C3                                            u730 06E3  
                                          u570 05A4                                            u810 0712  
                                          u651 04C2                                            u731 06E2  
                                          u571 05A3                                            u811 0711  
                                          u660 04D0                                            u740 06F5  
                                          u580 05B9                                            u900 07EC  
                                          u820 0718                                            u661 04CF  
                                          u741 06F4                                            u725 06CD  
                                          u581 05B8                                            u901 07EB  
                                          u821 0717                                            u670 04A0  
                                          u590 05CC                                            u750 05EF  
                                          u830 073C                                            u910 056F  
                                          u671 049F                                            u591 05CB  
                                          u751 05EE                                            u831 073B  
                                          u911 056E                                            u680 0652  
                                          u760 05F9                                            u840 074F  
                                          u920 0579                                            u745 06F1  
                                          u681 0651                                            u761 05F8  
                                          u905 07E8                                            u841 074E  
                                          u921 0578                                            u690 0680  
                                          u770 060F                                            u850 0784  
                                          u930 057F                                            u691 067F  
                                          u771 060E                                            u851 0783  
                                          u931 057E                                            u780 061A  
                                          u860 0796                                            u940 0585  
                                          u781 0619                                            u861 0795  
                                          u941 0584                                            u790 063E  
                                          u870 07AC                                            u950 058B  
                                          u695 067C                                            u791 063D  
                                          u871 07AB                                            u855 0780  
                                          u951 058A                                            u880 07C5  
                                          u960 0595                                            u881 07C4  
                                          u961 0594                                            u890 07CC  
                                          u891 07CB                                            u885 07C1  
                                 ___ctoee@addr 0077                                   ___ctoee@data 0076  
               ?_EUSART_SetFramingErrorHandler 0070                                            wreg 0009  
                                 ?_EUSART_Read 0070                                           l1401 0554  
                                         l1403 0558                                           l1411 05AF  
                                         l1501 0502                                           l1405 055C  
                                         l1421 05C8                                           l1413 05B9  
                                         l1503 0509                                           l1511 04DA  
                                         l1431 05D6                                           l1423 05CC  
                                         l1415 05BE                                           l1407 059D  
                                         l1441 045E                                           l1521 0495  
                                         l1513 04DD                                           l1505 04D2  
                                         l1433 05DB                                           l1425 05D0  
                                         l1417 05C2                                           l1409 05A4  
                                         l1601 0704                                           l1523 0498  
                                         l1515 04E2                                           l1507 04D5  
                                         l1451 04B4                                           l1443 0459  
                                         l1427 05D4                                           l1419 05C6  
                                         l1435 05DC                                           l1611 071B  
                                         l1603 0707                                           l1437 0464  
                                         l1525 0499                                           l1517 04E4  
                                         l1509 04D8                                           l1541 065E  
                                         l1453 04B9                                           l1429 05D5  
                                         l1461 050E                                           l1621 073F  
                                         l1613 0728                                           l1605 070C  
                                         l1439 046A                                           l1519 04E7  
                                         l1527 0455                                           l1391 0537  
                                         l1471 0493                                           l1551 06A3  
                                         l1543 066E                                           l1535 0642  
                                         l1455 04BB                                           l1447 04AE  
                                         l1463 051D                                           l1631 0762  
                                         l1623 074F                                           l1615 072E  
                                         l1607 0712                                           l1481 04BF  
                                         l1393 053E                                           l1561 06D1  
                                         l1553 06AB                                           l1545 0673  
                                         l1537 0652                                           l1529 063F  
                                         l1449 04B3                                           l1465 0521  
                                         l1633 0772                                           l1625 0756  
                                         l1609 0718                                           l1617 0735  
                                         l1387 0477                                           l1483 04C3  
                                         l1395 054A                                           l1555 06AF  
                                         l1547 0680                                           l1563 06E3  
                                         l1539 065A                                           l1475 0481  
                                         l1467 0531                                           l1459 050C  
                                         l1571 05F3                                           l1635 0777  
                                         l1627 075A                                           l1643 07A4  
                                         l1619 073C                                           l1651 07C6  
                                         l1493 04EA                                           l1389 047C  
                                         l1485 04C7                                           l1397 054E  
                                         l1469 048B                                           l1557 06BF  
                                         l1549 0693                                           l1573 05F9  
                                         l1581 0609                                           l1565 05E4  
                                         l1661 07DA                                           l1653 07CC  
                                         l1645 07AC                                           l1637 0784  
                                         l1629 075E                                           l1495 04F3  
                                         l1487 04C9                                           l1479 04BE  
                                         l1399 054F                                           l1559 06C4  
                                         l1591 0634                                           l1583 060F  
                                         l1567 05E7                                           l1663 07DF  
                                         l1647 07B3                                           l1639 0796  
                                         l1671 0573                                           l1497 04F4  
                                         l1489 04D0                                           l1593 0638  
                                         l1585 0614                                           l1577 05FF  
                                         l1569 05EF                                           l1665 07EC  
                                         l1681 058F                                           l1673 0579  
                                         l1499 04FB                                           l1595 04A1  
                                         l1587 061A                                           l1579 0605  
                                         l1659 07CE                                           l1683 0595  
                                         l1675 057F                                           l1667 0564  
                                         l1589 0622                                           l1597 06F6  
                                         l1677 0585                                           l1669 056F  
                                         l1599 06FD                                           l1679 058B  
                                         _LATA 010C                                           _LATB 010D  
                                         _PLLR 04D6                                           _WPUA 020C  
                                         _WPUB 020D                                           _main 0564  
                                         _msg0 0800                                           _msg1 08BE  
                                         _msg2 08A2                                           _msg3 08E3  
                                         _msg4 08D4                                           _msg5 0858  
                                         _msg6 0832                                           _msg7 087E  
                                         fsr0h 0005                                           fsr1h 0007  
                                         indf0 0000                                           fsr0l 0004  
                                         indf1 0001                                           fsr1l 0006  
                                         btemp 007E                       __end_of_recebeGuardaNome 063F  
                                         start 0002                              ___bmul@multiplier 0073  
                                ?_EUSART_Write 0070                  __end_of_OSCILLATOR_Initialize 04A1  
                                        ?_main 0070                                __end_of___eetoc 0495  
                                        _EEADR 0191                                __end_of___ctoee 048A  
                                        _RCREG 0199                                          _RCSTA 019D  
                                        _TRISA 008C                                          _TRISB 008D  
                                        _TXREG 019A                                          _TXSTA 019E  
                               _WDT_Initialize 0455                                  ___memcpyee@to 0075  
                                        status 0003                                          wtemp0 007E  
                                  enviaMsg@msg 0071                                    enviaNomes@i 0042  
                                  enviaNomes@j 003E                                __initialization 07F4  
                                 __end_of_main 059C                                   __end_of_msg0 0832  
                                 __end_of_msg1 08D4                                   __end_of_msg2 08BE  
                                 __end_of_msg3 08EC                                   __end_of_msg4 08E3  
                                 __end_of_msg5 087E                                   __end_of_msg6 0858  
                                 __end_of_msg7 08A2                                 ??_EUSART_Write 0070  
                                       ??_main 007C                         __end_of_WDT_Initialize 0459  
            _EUSART_DefaultFramingErrorHandler 0000                     _EUSART_OverrunErrorHandler 0037  
                                       _EEADRH 0192                                         _EEADRL 0191  
                                       _EEDATA 0193                                         _EEDATH 0194  
                                       _EEDATL 0193                                         _EECON1 0195  
                                       _EECON2 0196                                         _ANSELA 018C  
                                       _ANSELB 018D                     __end_of_EUSART_is_rx_ready 045E  
                                       _BORCON 0116                                         _OSCCON 0099  
                                       _SPBRGH 019C                                         _SPBRGL 019B  
                                       _WDTCON 0097                                         ___bmul 04BD  
                                    ??___eetoc 0076                                      ??___ctoee 0077  
                             __end_of_enviaMsg 0536                                ?_WDT_Initialize 0070  
                               ___memcpyee@ptr 0074                                     ___eecpymem 0536  
                            _SYSTEM_Initialize 04A1                        __end_of__initialization 07FD  
                           ?_SYSTEM_Initialize 0070                            ___bmul@multiplicand 0070  
                                   ___memcpyee 059C                                 __pcstackCOMMON 0070  
                          ??_SYSTEM_Initialize 0072                                 _OPTION_REGbits 0095  
              ??_EUSART_SetOverrunErrorHandler 0072                      __end_of_SYSTEM_Initialize 04AE  
                                   __pbssBANK0 0020                           __end_of_EUSART_Write 0480  
                            ?_recebeGuardaNome 0070                                     __pmaintext 0564  
                           ??_recebeGuardaNome 0078                                        ?___bmul 0070  
                                      _BAUDCON 019F                                        _APFCON0 011D  
                                      _APFCON1 011E                                        _OSCTUNE 0098  
                     ??_EUSART_SetErrorHandler 0072                                    ?___eecpymem 0070  
                                    ?_enviaMsg 0071                              __end_of_analisaRx 07F4  
                                   _enviaNomes 063F                                    ?___memcpyee 0070  
                                      ___eetoc 048A                                        ___ctoee 0480  
                                      __ptext1 06F6                                        __ptext2 05E4  
                                      __ptext3 050C                                        __ptext4 0480  
                                      __ptext5 059C                                        __ptext6 0459  
                                      __ptext7 04AE                                        __ptext8 063F  
                                      __ptext9 048A                                        _countRx 007D  
                        _OSCILLATOR_Initialize 0495                       ??_PIN_MANAGER_Initialize 0070  
                                   analisaRx@i 0048                                     analisaRx@j 0044  
                                      clrloop0 0471                           end_of_initialization 07FD  
                                   ??_enviaMsg 0073          __end_of_EUSART_SetOverrunErrorHandler 0470  
                _EUSART_SetOverrunErrorHandler 046A                              _EUSART_Initialize 04EA  
                           ?_EUSART_Initialize 0070                                      _RCSTAbits 019D  
                           _EUSART_is_rx_ready 0459                                ___memcpyee@from 0070  
                              ___memcpyee@size 0071                            ??_EUSART_Initialize 0072  
                             ??_WDT_Initialize 0070                            ?_EUSART_is_rx_ready 0070  
                    __end_of_EUSART_Initialize 050C                           ??_EUSART_is_rx_ready 0070  
                                    _TXSTAbits 019E                                    ?_enviaNomes 0070  
                                   main@rxChar 007C                                 __end_of___bmul 04D2  
                   _EUSART_DefaultErrorHandler 0000                                   _EUSART_Write 0476  
                       ?_OSCILLATOR_Initialize 0070                            start_initialization 07F4  
                                ??_EUSART_Read 0070                 ?_EUSART_SetOverrunErrorHandler 0070  
                   _EUSART_FramingErrorHandler 0039                                       ??___bmul 0071  
                       _EUSART_SetErrorHandler 045E                                    __pbssEEDATA 0000  
                                  __pbssCOMMON 007D                                      ___latbits 0001  
                                __pcstackBANK0 003E                                   ??___eecpymem 0072  
                          __end_of_EUSART_Read 04BD                                      _analisaRx 06F6  
                                 ??___memcpyee 0072                         _PIN_MANAGER_Initialize 04D2  
                                     ?___eetoc 0070                                       ?___ctoee 0076  
                           __end_of___eecpymem 0564                                      _countName 003C  
                           __end_of___memcpyee 05E4         EUSART_SetErrorHandler@interruptHandler 0070  
                                    clear_ram0 0470                              _eusartRxLastError 003D  
                                   ?_analisaRx 0070                                       _PIR1bits 0011  
              ??_EUSART_SetFramingErrorHandler 0072              _EUSART_DefaultOverrunErrorHandler 0000  
                    recebeGuardaNome@countByte 007A                         recebeGuardaNome@nameRx 0020  
                       recebeGuardaNome@rxChar 0079                                    _EUSART_Read 04AE  
                                    enviaMsg@i 0076                                   ??_enviaNomes 0078  
                                   _EECON1bits 0195                        ??_OSCILLATOR_Initialize 0070  
                          _EUSART_ErrorHandler 0035                               _recebeGuardaNome 05E4  
                           __end_of_enviaNomes 06F6                                       __ptext10 0536  
                                     __ptext11 04BD                                       __ptext20 045E  
                                     __ptext12 0476                                       __ptext13 04A1  
                                     __ptext14 0455                                       __ptext15 04D2  
                                     __ptext16 0495                                       __ptext17 04EA  
                                     __ptext18 046A                                       __ptext19 0464  
                                     _bufferRx 003B                                       _enviaMsg 050C  
                      ?_EUSART_SetErrorHandler 0070                                    ??_analisaRx 007B  
EUSART_SetOverrunErrorHandler@interruptHandler 0070          __end_of_EUSART_SetFramingErrorHandler 046A  
                _EUSART_SetFramingErrorHandler 0464                                ___eecpymem@from 0070  
                              ___eecpymem@size 0071                                     _INTCONbits 000B  
                      ?_PIN_MANAGER_Initialize 0070                 __end_of_EUSART_SetErrorHandler 0464  
                               analisaRx@i_424 0046  EUSART_SetFramingErrorHandler@interruptHandler 0070  
                                __pstringtext1 0800                                  __pstringtext2 08D4  
                                __pstringtext3 0832                                  __pstringtext4 0858  
                                __pstringtext5 087E                                  __pstringtext6 08A2  
                                __pstringtext7 08BE                                  __pstringtext8 08E3  
                                ___eecpymem@cp 0074                                  ___eecpymem@to 0075  
                           EUSART_Write@txData 0070                 __end_of_PIN_MANAGER_Initialize 04EA  
                                   _STATUSbits 0003                                   ___eetoc@addr 0076  
                                 ___eetoc@data 0077  
