

Microchip MPLAB XC8 Assembler V2.46 build 20240104201356 
                                                                                               Sat Aug 03 13:50:43 2024

Microchip MPLAB XC8 C Compiler v2.46 (Free license) build 20240104201356 Og1 
     1                           	processor	16F1827
     2                           	pagewidth 120
     3                           	opt	flic
     4                           	psect	stringtext1,global,class=STRCODE,delta=2,noexec
     5                           	psect	stringtext2,global,class=STRCODE,delta=2,noexec
     6                           	psect	stringtext3,global,class=STRCODE,delta=2,noexec
     7                           	psect	stringtext4,global,class=STRCODE,delta=2,noexec
     8                           	psect	stringtext5,global,class=STRCODE,delta=2,noexec
     9                           	psect	stringtext6,global,class=STRCODE,delta=2,noexec
    10                           	psect	stringtext7,global,class=STRCODE,delta=2,noexec
    11                           	psect	stringtext8,global,class=STRCODE,delta=2,noexec
    12                           	psect	cinit,global,class=CODE,merge=1,delta=2
    13                           	psect	bssEEDATA,global,class=EEDATA,space=3,delta=2,noexec
    14                           	psect	bssCOMMON,global,class=COMMON,space=1,delta=1,noexec
    15                           	psect	bssBANK0,global,class=BANK0,space=1,delta=1,noexec
    16                           	psect	clrtext,global,class=CODE,delta=2
    17                           	psect	cstackCOMMON,global,class=COMMON,space=1,delta=1,noexec
    18                           	psect	cstackBANK0,global,class=BANK0,space=1,delta=1,noexec
    19                           	psect	maintext,global,class=CODE,merge=1,split=1,delta=2
    20                           	psect	text1,local,class=CODE,merge=1,delta=2
    21                           	psect	text2,local,class=CODE,merge=1,delta=2
    22                           	psect	text3,local,class=CODE,merge=1,delta=2
    23                           	psect	text4,local,class=CODE,merge=1,delta=2
    24                           	psect	text5,local,class=CODE,merge=1,delta=2
    25                           	psect	text6,local,class=CODE,merge=1,delta=2
    26                           	psect	text7,local,class=CODE,merge=1,delta=2
    27                           	psect	text8,local,class=CODE,merge=1,delta=2
    28                           	psect	text9,local,class=CODE,merge=1,delta=2
    29                           	psect	text10,local,class=CODE,merge=1,delta=2
    30                           	psect	text11,local,class=CODE,merge=1,delta=2,group=1
    31                           	psect	text12,local,class=CODE,merge=1,delta=2
    32                           	psect	text13,local,class=CODE,merge=1,delta=2
    33                           	psect	text14,local,class=CODE,merge=1,delta=2
    34                           	psect	text15,local,class=CODE,merge=1,delta=2
    35                           	psect	text16,local,class=CODE,merge=1,delta=2
    36                           	psect	text17,local,class=CODE,merge=1,delta=2
    37                           	psect	text18,local,class=CODE,merge=1,delta=2
    38                           	psect	text19,local,class=CODE,merge=1,delta=2
    39                           	psect	text20,local,class=CODE,merge=1,delta=2
    40                           	psect	config,global,abs,ovrld,class=CONFIG,space=4,delta=2,noexec
    41                           	dabs	1,0x7E,2
    42     0000                     
    43                           ; Generated 07/09/2023 GMT
    44                           ; 
    45                           ; Copyright © 2023, Microchip Technology Inc. and its subsidiaries ("Microchip")
    46                           ; All rights reserved.
    47                           ; 
    48                           ; This software is developed by Microchip Technology Inc. and its subsidiaries ("Microch
      +                          ip").
    49                           ; 
    50                           ; Redistribution and use in source and binary forms, with or without modification, are
    51                           ; permitted provided that the following conditions are met:
    52                           ; 
    53                           ;     1. Redistributions of source code must retain the above copyright notice, this lis
      +                          t of
    54                           ;        conditions and the following disclaimer.
    55                           ; 
    56                           ;     2. Redistributions in binary form must reproduce the above copyright notice, this 
      +                          list
    57                           ;        of conditions and the following disclaimer in the documentation and/or other
    58                           ;        materials provided with the distribution. Publication is not required when
    59                           ;        this file is used in an embedded application.
    60                           ; 
    61                           ;     3. Microchip's name may not be used to endorse or promote products derived from th
      +                          is
    62                           ;        software without specific prior written permission.
    63                           ; 
    64                           ; THIS SOFTWARE IS PROVIDED BY MICROCHIP "AS IS" AND ANY EXPRESS OR IMPLIED WARRANTIES,
    65                           ; INCLUDING, BUT NOT LIMITED TO, THE IMPLIED WARRANTIES OF MERCHANTABILITY AND FITNESS F
      +                          OR
    66                           ; PURPOSE ARE DISCLAIMED.  IN NO EVENT SHALL MICROCHIP BE LIABLE FOR ANY DIRECT, INDIREC
      +                          T,
    67                           ; INCIDENTAL, SPECIAL, EXEMPLARY, OR CONSEQUENTIAL DAMAGES (INCLUDING BUT NOT LIMITED TO
    68                           ; PROCUREMENT OF SUBSTITUTE GOODS OR SERVICES; LOSS OF USE, DATA OR PROFITS; OR BUSINESS
    69                           ; INTERRUPTION) HOWSOEVER CAUSED AND ON ANY THEORY OF LIABILITY, WHETHER IN CONTRACT, ST
      +                          RICT
    70                           ; LIABILITY, OR TORT (INCLUDING NEGLIGENCE OR OTHERWISE) ARISING IN ANY WAY OUT OF THE U
      +                          SE OF
    71                           ; THIS SOFTWARE, EVEN IF ADVISED OF THE POSSIBILITY OF SUCH DAMAGE.
    72                           ; 
    73                           ; 
    74                           ; Code-generator required, PIC16F1827 Definitions
    75                           ; 
    76                           ; SFR Addresses
    77     0000                     	;# 
    78     0001                     	;# 
    79     0002                     	;# 
    80     0003                     	;# 
    81     0004                     	;# 
    82     0005                     	;# 
    83     0006                     	;# 
    84     0007                     	;# 
    85     0008                     	;# 
    86     0009                     	;# 
    87     000A                     	;# 
    88     000B                     	;# 
    89     000C                     	;# 
    90     000D                     	;# 
    91     0011                     	;# 
    92     0012                     	;# 
    93     0013                     	;# 
    94     0014                     	;# 
    95     0015                     	;# 
    96     0016                     	;# 
    97     0016                     	;# 
    98     0017                     	;# 
    99     0018                     	;# 
   100     0019                     	;# 
   101     001A                     	;# 
   102     001B                     	;# 
   103     001C                     	;# 
   104     001E                     	;# 
   105     001F                     	;# 
   106     008C                     	;# 
   107     008D                     	;# 
   108     0091                     	;# 
   109     0092                     	;# 
   110     0093                     	;# 
   111     0094                     	;# 
   112     0095                     	;# 
   113     0096                     	;# 
   114     0097                     	;# 
   115     0098                     	;# 
   116     0099                     	;# 
   117     009A                     	;# 
   118     009B                     	;# 
   119     009B                     	;# 
   120     009C                     	;# 
   121     009D                     	;# 
   122     009E                     	;# 
   123     010C                     	;# 
   124     010D                     	;# 
   125     0111                     	;# 
   126     0112                     	;# 
   127     0113                     	;# 
   128     0114                     	;# 
   129     0115                     	;# 
   130     0116                     	;# 
   131     0117                     	;# 
   132     0118                     	;# 
   133     0119                     	;# 
   134     011A                     	;# 
   135     011B                     	;# 
   136     011D                     	;# 
   137     011E                     	;# 
   138     018C                     	;# 
   139     018D                     	;# 
   140     0191                     	;# 
   141     0191                     	;# 
   142     0192                     	;# 
   143     0193                     	;# 
   144     0193                     	;# 
   145     0193                     	;# 
   146     0194                     	;# 
   147     0195                     	;# 
   148     0196                     	;# 
   149     0199                     	;# 
   150     019A                     	;# 
   151     019B                     	;# 
   152     019B                     	;# 
   153     019B                     	;# 
   154     019B                     	;# 
   155     019C                     	;# 
   156     019C                     	;# 
   157     019D                     	;# 
   158     019E                     	;# 
   159     019F                     	;# 
   160     020C                     	;# 
   161     020D                     	;# 
   162     0211                     	;# 
   163     0211                     	;# 
   164     0212                     	;# 
   165     0212                     	;# 
   166     0213                     	;# 
   167     0213                     	;# 
   168     0214                     	;# 
   169     0214                     	;# 
   170     0215                     	;# 
   171     0215                     	;# 
   172     0215                     	;# 
   173     0216                     	;# 
   174     0216                     	;# 
   175     0217                     	;# 
   176     0217                     	;# 
   177     0219                     	;# 
   178     021A                     	;# 
   179     021B                     	;# 
   180     021C                     	;# 
   181     021D                     	;# 
   182     021E                     	;# 
   183     021F                     	;# 
   184     0291                     	;# 
   185     0291                     	;# 
   186     0292                     	;# 
   187     0293                     	;# 
   188     0294                     	;# 
   189     0295                     	;# 
   190     0295                     	;# 
   191     0296                     	;# 
   192     0298                     	;# 
   193     0298                     	;# 
   194     0299                     	;# 
   195     029A                     	;# 
   196     029B                     	;# 
   197     029C                     	;# 
   198     029C                     	;# 
   199     029D                     	;# 
   200     029E                     	;# 
   201     029E                     	;# 
   202     0311                     	;# 
   203     0311                     	;# 
   204     0312                     	;# 
   205     0313                     	;# 
   206     0318                     	;# 
   207     0318                     	;# 
   208     0319                     	;# 
   209     031A                     	;# 
   210     0394                     	;# 
   211     0395                     	;# 
   212     0396                     	;# 
   213     039A                     	;# 
   214     039C                     	;# 
   215     039D                     	;# 
   216     039E                     	;# 
   217     039F                     	;# 
   218     0415                     	;# 
   219     0416                     	;# 
   220     0417                     	;# 
   221     041C                     	;# 
   222     041D                     	;# 
   223     041E                     	;# 
   224     0FE4                     	;# 
   225     0FE5                     	;# 
   226     0FE6                     	;# 
   227     0FE7                     	;# 
   228     0FE8                     	;# 
   229     0FE9                     	;# 
   230     0FEA                     	;# 
   231     0FEB                     	;# 
   232     0FED                     	;# 
   233     0FEE                     	;# 
   234     0FEF                     	;# 
   235     0000                     	;# 
   236     0001                     	;# 
   237     0002                     	;# 
   238     0003                     	;# 
   239     0004                     	;# 
   240     0005                     	;# 
   241     0006                     	;# 
   242     0007                     	;# 
   243     0008                     	;# 
   244     0009                     	;# 
   245     000A                     	;# 
   246     000B                     	;# 
   247     000C                     	;# 
   248     000D                     	;# 
   249     0011                     	;# 
   250     0012                     	;# 
   251     0013                     	;# 
   252     0014                     	;# 
   253     0015                     	;# 
   254     0016                     	;# 
   255     0016                     	;# 
   256     0017                     	;# 
   257     0018                     	;# 
   258     0019                     	;# 
   259     001A                     	;# 
   260     001B                     	;# 
   261     001C                     	;# 
   262     001E                     	;# 
   263     001F                     	;# 
   264     008C                     	;# 
   265     008D                     	;# 
   266     0091                     	;# 
   267     0092                     	;# 
   268     0093                     	;# 
   269     0094                     	;# 
   270     0095                     	;# 
   271     0096                     	;# 
   272     0097                     	;# 
   273     0098                     	;# 
   274     0099                     	;# 
   275     009A                     	;# 
   276     009B                     	;# 
   277     009B                     	;# 
   278     009C                     	;# 
   279     009D                     	;# 
   280     009E                     	;# 
   281     010C                     	;# 
   282     010D                     	;# 
   283     0111                     	;# 
   284     0112                     	;# 
   285     0113                     	;# 
   286     0114                     	;# 
   287     0115                     	;# 
   288     0116                     	;# 
   289     0117                     	;# 
   290     0118                     	;# 
   291     0119                     	;# 
   292     011A                     	;# 
   293     011B                     	;# 
   294     011D                     	;# 
   295     011E                     	;# 
   296     018C                     	;# 
   297     018D                     	;# 
   298     0191                     	;# 
   299     0191                     	;# 
   300     0192                     	;# 
   301     0193                     	;# 
   302     0193                     	;# 
   303     0193                     	;# 
   304     0194                     	;# 
   305     0195                     	;# 
   306     0196                     	;# 
   307     0199                     	;# 
   308     019A                     	;# 
   309     019B                     	;# 
   310     019B                     	;# 
   311     019B                     	;# 
   312     019B                     	;# 
   313     019C                     	;# 
   314     019C                     	;# 
   315     019D                     	;# 
   316     019E                     	;# 
   317     019F                     	;# 
   318     020C                     	;# 
   319     020D                     	;# 
   320     0211                     	;# 
   321     0211                     	;# 
   322     0212                     	;# 
   323     0212                     	;# 
   324     0213                     	;# 
   325     0213                     	;# 
   326     0214                     	;# 
   327     0214                     	;# 
   328     0215                     	;# 
   329     0215                     	;# 
   330     0215                     	;# 
   331     0216                     	;# 
   332     0216                     	;# 
   333     0217                     	;# 
   334     0217                     	;# 
   335     0219                     	;# 
   336     021A                     	;# 
   337     021B                     	;# 
   338     021C                     	;# 
   339     021D                     	;# 
   340     021E                     	;# 
   341     021F                     	;# 
   342     0291                     	;# 
   343     0291                     	;# 
   344     0292                     	;# 
   345     0293                     	;# 
   346     0294                     	;# 
   347     0295                     	;# 
   348     0295                     	;# 
   349     0296                     	;# 
   350     0298                     	;# 
   351     0298                     	;# 
   352     0299                     	;# 
   353     029A                     	;# 
   354     029B                     	;# 
   355     029C                     	;# 
   356     029C                     	;# 
   357     029D                     	;# 
   358     029E                     	;# 
   359     029E                     	;# 
   360     0311                     	;# 
   361     0311                     	;# 
   362     0312                     	;# 
   363     0313                     	;# 
   364     0318                     	;# 
   365     0318                     	;# 
   366     0319                     	;# 
   367     031A                     	;# 
   368     0394                     	;# 
   369     0395                     	;# 
   370     0396                     	;# 
   371     039A                     	;# 
   372     039C                     	;# 
   373     039D                     	;# 
   374     039E                     	;# 
   375     039F                     	;# 
   376     0415                     	;# 
   377     0416                     	;# 
   378     0417                     	;# 
   379     041C                     	;# 
   380     041D                     	;# 
   381     041E                     	;# 
   382     0FE4                     	;# 
   383     0FE5                     	;# 
   384     0FE6                     	;# 
   385     0FE7                     	;# 
   386     0FE8                     	;# 
   387     0FE9                     	;# 
   388     0FEA                     	;# 
   389     0FEB                     	;# 
   390     0FED                     	;# 
   391     0FEE                     	;# 
   392     0FEF                     	;# 
   393     0000                     	;# 
   394     0001                     	;# 
   395     0002                     	;# 
   396     0003                     	;# 
   397     0004                     	;# 
   398     0005                     	;# 
   399     0006                     	;# 
   400     0007                     	;# 
   401     0008                     	;# 
   402     0009                     	;# 
   403     000A                     	;# 
   404     000B                     	;# 
   405     000C                     	;# 
   406     000D                     	;# 
   407     0011                     	;# 
   408     0012                     	;# 
   409     0013                     	;# 
   410     0014                     	;# 
   411     0015                     	;# 
   412     0016                     	;# 
   413     0016                     	;# 
   414     0017                     	;# 
   415     0018                     	;# 
   416     0019                     	;# 
   417     001A                     	;# 
   418     001B                     	;# 
   419     001C                     	;# 
   420     001E                     	;# 
   421     001F                     	;# 
   422     008C                     	;# 
   423     008D                     	;# 
   424     0091                     	;# 
   425     0092                     	;# 
   426     0093                     	;# 
   427     0094                     	;# 
   428     0095                     	;# 
   429     0096                     	;# 
   430     0097                     	;# 
   431     0098                     	;# 
   432     0099                     	;# 
   433     009A                     	;# 
   434     009B                     	;# 
   435     009B                     	;# 
   436     009C                     	;# 
   437     009D                     	;# 
   438     009E                     	;# 
   439     010C                     	;# 
   440     010D                     	;# 
   441     0111                     	;# 
   442     0112                     	;# 
   443     0113                     	;# 
   444     0114                     	;# 
   445     0115                     	;# 
   446     0116                     	;# 
   447     0117                     	;# 
   448     0118                     	;# 
   449     0119                     	;# 
   450     011A                     	;# 
   451     011B                     	;# 
   452     011D                     	;# 
   453     011E                     	;# 
   454     018C                     	;# 
   455     018D                     	;# 
   456     0191                     	;# 
   457     0191                     	;# 
   458     0192                     	;# 
   459     0193                     	;# 
   460     0193                     	;# 
   461     0193                     	;# 
   462     0194                     	;# 
   463     0195                     	;# 
   464     0196                     	;# 
   465     0199                     	;# 
   466     019A                     	;# 
   467     019B                     	;# 
   468     019B                     	;# 
   469     019B                     	;# 
   470     019B                     	;# 
   471     019C                     	;# 
   472     019C                     	;# 
   473     019D                     	;# 
   474     019E                     	;# 
   475     019F                     	;# 
   476     020C                     	;# 
   477     020D                     	;# 
   478     0211                     	;# 
   479     0211                     	;# 
   480     0212                     	;# 
   481     0212                     	;# 
   482     0213                     	;# 
   483     0213                     	;# 
   484     0214                     	;# 
   485     0214                     	;# 
   486     0215                     	;# 
   487     0215                     	;# 
   488     0215                     	;# 
   489     0216                     	;# 
   490     0216                     	;# 
   491     0217                     	;# 
   492     0217                     	;# 
   493     0219                     	;# 
   494     021A                     	;# 
   495     021B                     	;# 
   496     021C                     	;# 
   497     021D                     	;# 
   498     021E                     	;# 
   499     021F                     	;# 
   500     0291                     	;# 
   501     0291                     	;# 
   502     0292                     	;# 
   503     0293                     	;# 
   504     0294                     	;# 
   505     0295                     	;# 
   506     0295                     	;# 
   507     0296                     	;# 
   508     0298                     	;# 
   509     0298                     	;# 
   510     0299                     	;# 
   511     029A                     	;# 
   512     029B                     	;# 
   513     029C                     	;# 
   514     029C                     	;# 
   515     029D                     	;# 
   516     029E                     	;# 
   517     029E                     	;# 
   518     0311                     	;# 
   519     0311                     	;# 
   520     0312                     	;# 
   521     0313                     	;# 
   522     0318                     	;# 
   523     0318                     	;# 
   524     0319                     	;# 
   525     031A                     	;# 
   526     0394                     	;# 
   527     0395                     	;# 
   528     0396                     	;# 
   529     039A                     	;# 
   530     039C                     	;# 
   531     039D                     	;# 
   532     039E                     	;# 
   533     039F                     	;# 
   534     0415                     	;# 
   535     0416                     	;# 
   536     0417                     	;# 
   537     041C                     	;# 
   538     041D                     	;# 
   539     041E                     	;# 
   540     0FE4                     	;# 
   541     0FE5                     	;# 
   542     0FE6                     	;# 
   543     0FE7                     	;# 
   544     0FE8                     	;# 
   545     0FE9                     	;# 
   546     0FEA                     	;# 
   547     0FEB                     	;# 
   548     0FED                     	;# 
   549     0FEE                     	;# 
   550     0FEF                     	;# 
   551     0000                     	;# 
   552     0001                     	;# 
   553     0002                     	;# 
   554     0003                     	;# 
   555     0004                     	;# 
   556     0005                     	;# 
   557     0006                     	;# 
   558     0007                     	;# 
   559     0008                     	;# 
   560     0009                     	;# 
   561     000A                     	;# 
   562     000B                     	;# 
   563     000C                     	;# 
   564     000D                     	;# 
   565     0011                     	;# 
   566     0012                     	;# 
   567     0013                     	;# 
   568     0014                     	;# 
   569     0015                     	;# 
   570     0016                     	;# 
   571     0016                     	;# 
   572     0017                     	;# 
   573     0018                     	;# 
   574     0019                     	;# 
   575     001A                     	;# 
   576     001B                     	;# 
   577     001C                     	;# 
   578     001E                     	;# 
   579     001F                     	;# 
   580     008C                     	;# 
   581     008D                     	;# 
   582     0091                     	;# 
   583     0092                     	;# 
   584     0093                     	;# 
   585     0094                     	;# 
   586     0095                     	;# 
   587     0096                     	;# 
   588     0097                     	;# 
   589     0098                     	;# 
   590     0099                     	;# 
   591     009A                     	;# 
   592     009B                     	;# 
   593     009B                     	;# 
   594     009C                     	;# 
   595     009D                     	;# 
   596     009E                     	;# 
   597     010C                     	;# 
   598     010D                     	;# 
   599     0111                     	;# 
   600     0112                     	;# 
   601     0113                     	;# 
   602     0114                     	;# 
   603     0115                     	;# 
   604     0116                     	;# 
   605     0117                     	;# 
   606     0118                     	;# 
   607     0119                     	;# 
   608     011A                     	;# 
   609     011B                     	;# 
   610     011D                     	;# 
   611     011E                     	;# 
   612     018C                     	;# 
   613     018D                     	;# 
   614     0191                     	;# 
   615     0191                     	;# 
   616     0192                     	;# 
   617     0193                     	;# 
   618     0193                     	;# 
   619     0193                     	;# 
   620     0194                     	;# 
   621     0195                     	;# 
   622     0196                     	;# 
   623     0199                     	;# 
   624     019A                     	;# 
   625     019B                     	;# 
   626     019B                     	;# 
   627     019B                     	;# 
   628     019B                     	;# 
   629     019C                     	;# 
   630     019C                     	;# 
   631     019D                     	;# 
   632     019E                     	;# 
   633     019F                     	;# 
   634     020C                     	;# 
   635     020D                     	;# 
   636     0211                     	;# 
   637     0211                     	;# 
   638     0212                     	;# 
   639     0212                     	;# 
   640     0213                     	;# 
   641     0213                     	;# 
   642     0214                     	;# 
   643     0214                     	;# 
   644     0215                     	;# 
   645     0215                     	;# 
   646     0215                     	;# 
   647     0216                     	;# 
   648     0216                     	;# 
   649     0217                     	;# 
   650     0217                     	;# 
   651     0219                     	;# 
   652     021A                     	;# 
   653     021B                     	;# 
   654     021C                     	;# 
   655     021D                     	;# 
   656     021E                     	;# 
   657     021F                     	;# 
   658     0291                     	;# 
   659     0291                     	;# 
   660     0292                     	;# 
   661     0293                     	;# 
   662     0294                     	;# 
   663     0295                     	;# 
   664     0295                     	;# 
   665     0296                     	;# 
   666     0298                     	;# 
   667     0298                     	;# 
   668     0299                     	;# 
   669     029A                     	;# 
   670     029B                     	;# 
   671     029C                     	;# 
   672     029C                     	;# 
   673     029D                     	;# 
   674     029E                     	;# 
   675     029E                     	;# 
   676     0311                     	;# 
   677     0311                     	;# 
   678     0312                     	;# 
   679     0313                     	;# 
   680     0318                     	;# 
   681     0318                     	;# 
   682     0319                     	;# 
   683     031A                     	;# 
   684     0394                     	;# 
   685     0395                     	;# 
   686     0396                     	;# 
   687     039A                     	;# 
   688     039C                     	;# 
   689     039D                     	;# 
   690     039E                     	;# 
   691     039F                     	;# 
   692     0415                     	;# 
   693     0416                     	;# 
   694     0417                     	;# 
   695     041C                     	;# 
   696     041D                     	;# 
   697     041E                     	;# 
   698     0FE4                     	;# 
   699     0FE5                     	;# 
   700     0FE6                     	;# 
   701     0FE7                     	;# 
   702     0FE8                     	;# 
   703     0FE9                     	;# 
   704     0FEA                     	;# 
   705     0FEB                     	;# 
   706     0FED                     	;# 
   707     0FEE                     	;# 
   708     0FEF                     	;# 
   709     0000                     	;# 
   710     0001                     	;# 
   711     0002                     	;# 
   712     0003                     	;# 
   713     0004                     	;# 
   714     0005                     	;# 
   715     0006                     	;# 
   716     0007                     	;# 
   717     0008                     	;# 
   718     0009                     	;# 
   719     000A                     	;# 
   720     000B                     	;# 
   721     000C                     	;# 
   722     000D                     	;# 
   723     0011                     	;# 
   724     0012                     	;# 
   725     0013                     	;# 
   726     0014                     	;# 
   727     0015                     	;# 
   728     0016                     	;# 
   729     0016                     	;# 
   730     0017                     	;# 
   731     0018                     	;# 
   732     0019                     	;# 
   733     001A                     	;# 
   734     001B                     	;# 
   735     001C                     	;# 
   736     001E                     	;# 
   737     001F                     	;# 
   738     008C                     	;# 
   739     008D                     	;# 
   740     0091                     	;# 
   741     0092                     	;# 
   742     0093                     	;# 
   743     0094                     	;# 
   744     0095                     	;# 
   745     0096                     	;# 
   746     0097                     	;# 
   747     0098                     	;# 
   748     0099                     	;# 
   749     009A                     	;# 
   750     009B                     	;# 
   751     009B                     	;# 
   752     009C                     	;# 
   753     009D                     	;# 
   754     009E                     	;# 
   755     010C                     	;# 
   756     010D                     	;# 
   757     0111                     	;# 
   758     0112                     	;# 
   759     0113                     	;# 
   760     0114                     	;# 
   761     0115                     	;# 
   762     0116                     	;# 
   763     0117                     	;# 
   764     0118                     	;# 
   765     0119                     	;# 
   766     011A                     	;# 
   767     011B                     	;# 
   768     011D                     	;# 
   769     011E                     	;# 
   770     018C                     	;# 
   771     018D                     	;# 
   772     0191                     	;# 
   773     0191                     	;# 
   774     0192                     	;# 
   775     0193                     	;# 
   776     0193                     	;# 
   777     0193                     	;# 
   778     0194                     	;# 
   779     0195                     	;# 
   780     0196                     	;# 
   781     0199                     	;# 
   782     019A                     	;# 
   783     019B                     	;# 
   784     019B                     	;# 
   785     019B                     	;# 
   786     019B                     	;# 
   787     019C                     	;# 
   788     019C                     	;# 
   789     019D                     	;# 
   790     019E                     	;# 
   791     019F                     	;# 
   792     020C                     	;# 
   793     020D                     	;# 
   794     0211                     	;# 
   795     0211                     	;# 
   796     0212                     	;# 
   797     0212                     	;# 
   798     0213                     	;# 
   799     0213                     	;# 
   800     0214                     	;# 
   801     0214                     	;# 
   802     0215                     	;# 
   803     0215                     	;# 
   804     0215                     	;# 
   805     0216                     	;# 
   806     0216                     	;# 
   807     0217                     	;# 
   808     0217                     	;# 
   809     0219                     	;# 
   810     021A                     	;# 
   811     021B                     	;# 
   812     021C                     	;# 
   813     021D                     	;# 
   814     021E                     	;# 
   815     021F                     	;# 
   816     0291                     	;# 
   817     0291                     	;# 
   818     0292                     	;# 
   819     0293                     	;# 
   820     0294                     	;# 
   821     0295                     	;# 
   822     0295                     	;# 
   823     0296                     	;# 
   824     0298                     	;# 
   825     0298                     	;# 
   826     0299                     	;# 
   827     029A                     	;# 
   828     029B                     	;# 
   829     029C                     	;# 
   830     029C                     	;# 
   831     029D                     	;# 
   832     029E                     	;# 
   833     029E                     	;# 
   834     0311                     	;# 
   835     0311                     	;# 
   836     0312                     	;# 
   837     0313                     	;# 
   838     0318                     	;# 
   839     0318                     	;# 
   840     0319                     	;# 
   841     031A                     	;# 
   842     0394                     	;# 
   843     0395                     	;# 
   844     0396                     	;# 
   845     039A                     	;# 
   846     039C                     	;# 
   847     039D                     	;# 
   848     039E                     	;# 
   849     039F                     	;# 
   850     0415                     	;# 
   851     0416                     	;# 
   852     0417                     	;# 
   853     041C                     	;# 
   854     041D                     	;# 
   855     041E                     	;# 
   856     0FE4                     	;# 
   857     0FE5                     	;# 
   858     0FE6                     	;# 
   859     0FE7                     	;# 
   860     0FE8                     	;# 
   861     0FE9                     	;# 
   862     0FEA                     	;# 
   863     0FEB                     	;# 
   864     0FED                     	;# 
   865     0FEE                     	;# 
   866     0FEF                     	;# 
   867     0000                     	;# 
   868     0001                     	;# 
   869     0002                     	;# 
   870     0003                     	;# 
   871     0004                     	;# 
   872     0005                     	;# 
   873     0006                     	;# 
   874     0007                     	;# 
   875     0008                     	;# 
   876     0009                     	;# 
   877     000A                     	;# 
   878     000B                     	;# 
   879     000C                     	;# 
   880     000D                     	;# 
   881     0011                     	;# 
   882     0012                     	;# 
   883     0013                     	;# 
   884     0014                     	;# 
   885     0015                     	;# 
   886     0016                     	;# 
   887     0016                     	;# 
   888     0017                     	;# 
   889     0018                     	;# 
   890     0019                     	;# 
   891     001A                     	;# 
   892     001B                     	;# 
   893     001C                     	;# 
   894     001E                     	;# 
   895     001F                     	;# 
   896     008C                     	;# 
   897     008D                     	;# 
   898     0091                     	;# 
   899     0092                     	;# 
   900     0093                     	;# 
   901     0094                     	;# 
   902     0095                     	;# 
   903     0096                     	;# 
   904     0097                     	;# 
   905     0098                     	;# 
   906     0099                     	;# 
   907     009A                     	;# 
   908     009B                     	;# 
   909     009B                     	;# 
   910     009C                     	;# 
   911     009D                     	;# 
   912     009E                     	;# 
   913     010C                     	;# 
   914     010D                     	;# 
   915     0111                     	;# 
   916     0112                     	;# 
   917     0113                     	;# 
   918     0114                     	;# 
   919     0115                     	;# 
   920     0116                     	;# 
   921     0117                     	;# 
   922     0118                     	;# 
   923     0119                     	;# 
   924     011A                     	;# 
   925     011B                     	;# 
   926     011D                     	;# 
   927     011E                     	;# 
   928     018C                     	;# 
   929     018D                     	;# 
   930     0191                     	;# 
   931     0191                     	;# 
   932     0192                     	;# 
   933     0193                     	;# 
   934     0193                     	;# 
   935     0193                     	;# 
   936     0194                     	;# 
   937     0195                     	;# 
   938     0196                     	;# 
   939     0199                     	;# 
   940     019A                     	;# 
   941     019B                     	;# 
   942     019B                     	;# 
   943     019B                     	;# 
   944     019B                     	;# 
   945     019C                     	;# 
   946     019C                     	;# 
   947     019D                     	;# 
   948     019E                     	;# 
   949     019F                     	;# 
   950     020C                     	;# 
   951     020D                     	;# 
   952     0211                     	;# 
   953     0211                     	;# 
   954     0212                     	;# 
   955     0212                     	;# 
   956     0213                     	;# 
   957     0213                     	;# 
   958     0214                     	;# 
   959     0214                     	;# 
   960     0215                     	;# 
   961     0215                     	;# 
   962     0215                     	;# 
   963     0216                     	;# 
   964     0216                     	;# 
   965     0217                     	;# 
   966     0217                     	;# 
   967     0219                     	;# 
   968     021A                     	;# 
   969     021B                     	;# 
   970     021C                     	;# 
   971     021D                     	;# 
   972     021E                     	;# 
   973     021F                     	;# 
   974     0291                     	;# 
   975     0291                     	;# 
   976     0292                     	;# 
   977     0293                     	;# 
   978     0294                     	;# 
   979     0295                     	;# 
   980     0295                     	;# 
   981     0296                     	;# 
   982     0298                     	;# 
   983     0298                     	;# 
   984     0299                     	;# 
   985     029A                     	;# 
   986     029B                     	;# 
   987     029C                     	;# 
   988     029C                     	;# 
   989     029D                     	;# 
   990     029E                     	;# 
   991     029E                     	;# 
   992     0311                     	;# 
   993     0311                     	;# 
   994     0312                     	;# 
   995     0313                     	;# 
   996     0318                     	;# 
   997     0318                     	;# 
   998     0319                     	;# 
   999     031A                     	;# 
  1000     0394                     	;# 
  1001     0395                     	;# 
  1002     0396                     	;# 
  1003     039A                     	;# 
  1004     039C                     	;# 
  1005     039D                     	;# 
  1006     039E                     	;# 
  1007     039F                     	;# 
  1008     0415                     	;# 
  1009     0416                     	;# 
  1010     0417                     	;# 
  1011     041C                     	;# 
  1012     041D                     	;# 
  1013     041E                     	;# 
  1014     0FE4                     	;# 
  1015     0FE5                     	;# 
  1016     0FE6                     	;# 
  1017     0FE7                     	;# 
  1018     0FE8                     	;# 
  1019     0FE9                     	;# 
  1020     0FEA                     	;# 
  1021     0FEB                     	;# 
  1022     0FED                     	;# 
  1023     0FEE                     	;# 
  1024     0FEF                     	;# 
  1025                           
  1026 ;; Function _EUSART_DefaultFramingErrorHandler is unused but had its address taken
  1027     0000                     
  1028 ;; Function _EUSART_DefaultOverrunErrorHandler is unused but had its address taken
  1029     0000                     
  1030 ;; Function _EUSART_DefaultErrorHandler is unused but had its address taken
  1031     0000                     
  1032                           	psect	stringtext1
  1033     0800                     __pstringtext1:
  1034     0800                     _msg0:
  1035     0800  344C               	retlw	76
  1036     0801  342D               	retlw	45
  1037     0802  3445               	retlw	69
  1038     0803  3478               	retlw	120
  1039     0804  3469               	retlw	105
  1040     0805  3462               	retlw	98
  1041     0806  3465               	retlw	101
  1042     0807  3420               	retlw	32
  1043     0808  346C               	retlw	108
  1044     0809  3469               	retlw	105
  1045     080A  3473               	retlw	115
  1046     080B  3474               	retlw	116
  1047     080C  3461               	retlw	97
  1048     080D  342C               	retlw	44
  1049     080E  3420               	retlw	32
  1050     080F  3441               	retlw	65
  1051     0810  342D               	retlw	45
  1052     0811  3441               	retlw	65
  1053     0812  3467               	retlw	103
  1054     0813  3465               	retlw	101
  1055     0814  346E               	retlw	110
  1056     0815  3464               	retlw	100
  1057     0816  3461               	retlw	97
  1058     0817  342C               	retlw	44
  1059     0818  3420               	retlw	32
  1060     0819  3450               	retlw	80
  1061     081A  342D               	retlw	45
  1062     081B  3450               	retlw	80
  1063     081C  3472               	retlw	114
  1064     081D  346F               	retlw	111
  1065     081E  3478               	retlw	120
  1066     081F  3469               	retlw	105
  1067     0820  346D               	retlw	109
  1068     0821  346F               	retlw	111
  1069     0822  342C               	retlw	44
  1070     0823  3420               	retlw	32
  1071     0824  3452               	retlw	82
  1072     0825  342D               	retlw	45
  1073     0826  3441               	retlw	65
  1074     0827  3470               	retlw	112
  1075     0828  3461               	retlw	97
  1076     0829  3467               	retlw	103
  1077     082A  3461               	retlw	97
  1078     082B  3420               	retlw	32
  1079     082C  346C               	retlw	108
  1080     082D  3469               	retlw	105
  1081     082E  3473               	retlw	115
  1082     082F  3474               	retlw	116
  1083     0830  3461               	retlw	97
  1084     0831  3400               	retlw	0
  1085     0832                     __end_of_msg0:
  1086                           
  1087                           	psect	stringtext2
  1088     0832                     __pstringtext2:
  1089     0832                     _msg6:
  1090     0832  3454               	retlw	84
  1091     0833  346F               	retlw	111
  1092     0834  3464               	retlw	100
  1093     0835  346F               	retlw	111
  1094     0836  3473               	retlw	115
  1095     0837  3420               	retlw	32
  1096     0838  346F               	retlw	111
  1097     0839  3473               	retlw	115
  1098     083A  3420               	retlw	32
  1099     083B  3461               	retlw	97
  1100     083C  3467               	retlw	103
  1101     083D  3465               	retlw	101
  1102     083E  346E               	retlw	110
  1103     083F  3464               	retlw	100
  1104     0840  3461               	retlw	97
  1105     0841  346D               	retlw	109
  1106     0842  3465               	retlw	101
  1107     0843  346E               	retlw	110
  1108     0844  3474               	retlw	116
  1109     0845  346F               	retlw	111
  1110     0846  3473               	retlw	115
  1111     0847  3420               	retlw	32
  1112     0848  3466               	retlw	102
  1113     0849  346F               	retlw	111
  1114     084A  3472               	retlw	114
  1115     084B  3461               	retlw	97
  1116     084C  346D               	retlw	109
  1117     084D  3420               	retlw	32
  1118     084E  3461               	retlw	97
  1119     084F  3474               	retlw	116
  1120     0850  3465               	retlw	101
  1121     0851  346E               	retlw	110
  1122     0852  3464               	retlw	100
  1123     0853  3469               	retlw	105
  1124     0854  3464               	retlw	100
  1125     0855  346F               	retlw	111
  1126     0856  3473               	retlw	115
  1127     0857  3400               	retlw	0
  1128     0858                     __end_of_msg6:
  1129                           
  1130                           	psect	stringtext3
  1131     0858                     __pstringtext3:
  1132     0858                     _msg5:
  1133     0858  344E               	retlw	78
  1134     0859  3461               	retlw	97
  1135     085A  346F               	retlw	111
  1136     085B  3420               	retlw	32
  1137     085C  3466               	retlw	102
  1138     085D  346F               	retlw	111
  1139     085E  3469               	retlw	105
  1140     085F  3420               	retlw	32
  1141     0860  3470               	retlw	112
  1142     0861  346F               	retlw	111
  1143     0862  3473               	retlw	115
  1144     0863  3473               	retlw	115
  1145     0864  3469               	retlw	105
  1146     0865  3476               	retlw	118
  1147     0866  3465               	retlw	101
  1148     0867  346C               	retlw	108
  1149     0868  3420               	retlw	32
  1150     0869  3461               	retlw	97
  1151     086A  3467               	retlw	103
  1152     086B  3465               	retlw	101
  1153     086C  346E               	retlw	110
  1154     086D  3464               	retlw	100
  1155     086E  3461               	retlw	97
  1156     086F  3472               	retlw	114
  1157     0870  3420               	retlw	32
  1158     0871  3428               	retlw	40
  1159     0872  346E               	retlw	110
  1160     0873  346F               	retlw	111
  1161     0874  346D               	retlw	109
  1162     0875  3465               	retlw	101
  1163     0876  3420               	retlw	32
  1164     0877  3476               	retlw	118
  1165     0878  3461               	retlw	97
  1166     0879  347A               	retlw	122
  1167     087A  3469               	retlw	105
  1168     087B  346F               	retlw	111
  1169     087C  3429               	retlw	41
  1170     087D  3400               	retlw	0
  1171     087E                     __end_of_msg5:
  1172                           
  1173                           	psect	stringtext4
  1174     087E                     __pstringtext4:
  1175     087E                     _msg7:
  1176     087E  344E               	retlw	78
  1177     087F  3461               	retlw	97
  1178     0880  346F               	retlw	111
  1179     0881  3420               	retlw	32
  1180     0882  3464               	retlw	100
  1181     0883  3469               	retlw	105
  1182     0884  3473               	retlw	115
  1183     0885  3470               	retlw	112
  1184     0886  346F               	retlw	111
  1185     0887  346E               	retlw	110
  1186     0888  3465               	retlw	101
  1187     0889  346D               	retlw	109
  1188     088A  346F               	retlw	111
  1189     088B  3473               	retlw	115
  1190     088C  3420               	retlw	32
  1191     088D  3464               	retlw	100
  1192     088E  3465               	retlw	101
  1193     088F  3420               	retlw	32
  1194     0890  346D               	retlw	109
  1195     0891  3461               	retlw	97
  1196     0892  3469               	retlw	105
  1197     0893  3473               	retlw	115
  1198     0894  3420               	retlw	32
  1199     0895  3461               	retlw	97
  1200     0896  3467               	retlw	103
  1201     0897  3465               	retlw	101
  1202     0898  346E               	retlw	110
  1203     0899  3464               	retlw	100
  1204     089A  3461               	retlw	97
  1205     089B  346D               	retlw	109
  1206     089C  3465               	retlw	101
  1207     089D  346E               	retlw	110
  1208     089E  3474               	retlw	116
  1209     089F  346F               	retlw	111
  1210     08A0  3473               	retlw	115
  1211     08A1  3400               	retlw	0
  1212     08A2                     __end_of_msg7:
  1213                           
  1214                           	psect	stringtext5
  1215     08A2                     __pstringtext5:
  1216     08A2                     _msg2:
  1217     08A2  344C               	retlw	76
  1218     08A3  3469               	retlw	105
  1219     08A4  3473               	retlw	115
  1220     08A5  3474               	retlw	116
  1221     08A6  3461               	retlw	97
  1222     08A7  3420               	retlw	32
  1223     08A8  3464               	retlw	100
  1224     08A9  3465               	retlw	101
  1225     08AA  3420               	retlw	32
  1226     08AB  3461               	retlw	97
  1227     08AC  3467               	retlw	103
  1228     08AD  3465               	retlw	101
  1229     08AE  346E               	retlw	110
  1230     08AF  3464               	retlw	100
  1231     08B0  3461               	retlw	97
  1232     08B1  346D               	retlw	109
  1233     08B2  3465               	retlw	101
  1234     08B3  346E               	retlw	110
  1235     08B4  3474               	retlw	116
  1236     08B5  346F               	retlw	111
  1237     08B6  3473               	retlw	115
  1238     08B7  3420               	retlw	32
  1239     08B8  3476               	retlw	118
  1240     08B9  3461               	retlw	97
  1241     08BA  347A               	retlw	122
  1242     08BB  3469               	retlw	105
  1243     08BC  3461               	retlw	97
  1244     08BD  3400               	retlw	0
  1245     08BE                     __end_of_msg2:
  1246                           
  1247                           	psect	stringtext6
  1248     08BE                     __pstringtext6:
  1249     08BE                     _msg1:
  1250     08BE  344C               	retlw	76
  1251     08BF  3469               	retlw	105
  1252     08C0  3473               	retlw	115
  1253     08C1  3474               	retlw	116
  1254     08C2  3461               	retlw	97
  1255     08C3  3420               	retlw	32
  1256     08C4  3464               	retlw	100
  1257     08C5  3465               	retlw	101
  1258     08C6  3420               	retlw	32
  1259     08C7  3461               	retlw	97
  1260     08C8  3467               	retlw	103
  1261     08C9  3465               	retlw	101
  1262     08CA  346E               	retlw	110
  1263     08CB  3464               	retlw	100
  1264     08CC  3461               	retlw	97
  1265     08CD  346D               	retlw	109
  1266     08CE  3465               	retlw	101
  1267     08CF  346E               	retlw	110
  1268     08D0  3474               	retlw	116
  1269     08D1  346F               	retlw	111
  1270     08D2  3473               	retlw	115
  1271     08D3  3400               	retlw	0
  1272     08D4                     __end_of_msg1:
  1273                           
  1274                           	psect	stringtext7
  1275     08D4                     __pstringtext7:
  1276     08D4                     _msg4:
  1277     08D4  3444               	retlw	68
  1278     08D5  3469               	retlw	105
  1279     08D6  3467               	retlw	103
  1280     08D7  3469               	retlw	105
  1281     08D8  3474               	retlw	116
  1282     08D9  3465               	retlw	101
  1283     08DA  3420               	retlw	32
  1284     08DB  346F               	retlw	111
  1285     08DC  3420               	retlw	32
  1286     08DD  346E               	retlw	110
  1287     08DE  346F               	retlw	111
  1288     08DF  346D               	retlw	109
  1289     08E0  3465               	retlw	101
  1290     08E1  343A               	retlw	58
  1291     08E2  3400               	retlw	0
  1292     08E3                     __end_of_msg4:
  1293                           
  1294                           	psect	stringtext8
  1295     08E3                     __pstringtext8:
  1296     08E3                     _msg3:
  1297     08E3  3450               	retlw	80
  1298     08E4  3472               	retlw	114
  1299     08E5  346F               	retlw	111
  1300     08E6  3478               	retlw	120
  1301     08E7  3469               	retlw	105
  1302     08E8  346D               	retlw	109
  1303     08E9  346F               	retlw	111
  1304     08EA  343A               	retlw	58
  1305     08EB  3400               	retlw	0
  1306     08EC                     __end_of_msg3:
  1307     0003                     _STATUSbits	set	3
  1308     0011                     _PIR1bits	set	17
  1309     000B                     _INTCONbits	set	11
  1310     0095                     _OPTION_REGbits	set	149
  1311     008D                     _TRISB	set	141
  1312     008C                     _TRISA	set	140
  1313     0097                     _WDTCON	set	151
  1314     0098                     _OSCTUNE	set	152
  1315     0099                     _OSCCON	set	153
  1316     04D6                     _PLLR	set	1238
  1317     011E                     _APFCON1	set	286
  1318     011D                     _APFCON0	set	285
  1319     010D                     _LATB	set	269
  1320     010C                     _LATA	set	268
  1321     0116                     _BORCON	set	278
  1322     0191                     _EEADR	set	401
  1323     0193                     _EEDATA	set	403
  1324     0195                     _EECON1	set	405
  1325     018C                     _ANSELA	set	396
  1326     018D                     _ANSELB	set	397
  1327     019A                     _TXREG	set	410
  1328     0199                     _RCREG	set	409
  1329     019D                     _RCSTAbits	set	413
  1330     019E                     _TXSTAbits	set	414
  1331     019C                     _SPBRGH	set	412
  1332     019B                     _SPBRGL	set	411
  1333     019E                     _TXSTA	set	414
  1334     019D                     _RCSTA	set	413
  1335     019F                     _BAUDCON	set	415
  1336     0196                     _EECON2	set	406
  1337     0193                     _EEDATL	set	403
  1338     0194                     _EEDATH	set	404
  1339     0195                     _EECON1bits	set	405
  1340     0192                     _EEADRH	set	402
  1341     0191                     _EEADRL	set	401
  1342     020C                     _WPUA	set	524
  1343     020D                     _WPUB	set	525
  1344                           
  1345                           	psect	cinit
  1346     07F4                     start_initialization:	
  1347                           ; #config settings
  1348                           
  1349     07F4                     __initialization:
  1350                           
  1351                           ; Clear objects allocated to COMMON
  1352     07F4  01FD               	clrf	__pbssCOMMON& (0+127)
  1353                           
  1354                           ; Clear objects allocated to BANK0
  1355     07F5  3020               	movlw	low __pbssBANK0
  1356     07F6  0084               	movwf	4
  1357     07F7  3000               	movlw	high __pbssBANK0
  1358     07F8  0085               	movwf	5
  1359     07F9  301F               	movlw	31
  1360     07FA  3184  244F  3187   	fcall	clear_ram0
  1361     07FD                     end_of_initialization:	
  1362                           ;End of C runtime variable initialization code
  1363                           
  1364     07FD                     __end_of__initialization:
  1365     07FD  0020               	movlb	0
  1366     07FE  3185  2D43         	ljmp	_main	;jump to C main() function
  1367                           
  1368                           	psect	bssEEDATA
  1369     0000                     __pbssEEDATA:
  1370     0000                     _ee:
  1371     0000  0000               	db	0
  1372     0001  0000               	db	0
  1373     0002  0000               	db	0
  1374     0003  0000               	db	0
  1375     0004  0000               	db	0
  1376     0005  0000               	db	0
  1377     0006  0000               	db	0
  1378     0007  0000               	db	0
  1379     0008  0000               	db	0
  1380     0009  0000               	db	0
  1381     000A  0000               	db	0
  1382     000B  0000               	db	0
  1383     000C  0000               	db	0
  1384     000D  0000               	db	0
  1385     000E  0000               	db	0
  1386     000F  0000               	db	0
  1387     0010  0000               	db	0
  1388     0011  0000               	db	0
  1389     0012  0000               	db	0
  1390     0013  0000               	db	0
  1391     0014  0000               	db	0
  1392     0015  0000               	db	0
  1393     0016  0000               	db	0
  1394     0017  0000               	db	0
  1395     0018  0000               	db	0
  1396     0019  0000               	db	0
  1397     001A  0000               	db	0
  1398     001B  0000               	db	0
  1399     001C  0000               	db	0
  1400     001D  0000               	db	0
  1401     001E  0000               	db	0
  1402     001F  0000               	db	0
  1403     0020  0000               	db	0
  1404     0021  0000               	db	0
  1405     0022  0000               	db	0
  1406     0023  0000               	db	0
  1407     0024  0000               	db	0
  1408     0025  0000               	db	0
  1409     0026  0000               	db	0
  1410     0027  0000               	db	0
  1411     0028  0000               	db	0
  1412     0029  0000               	db	0
  1413     002A  0000               	db	0
  1414     002B  0000               	db	0
  1415     002C  0000               	db	0
  1416     002D  0000               	db	0
  1417     002E  0000               	db	0
  1418     002F  0000               	db	0
  1419     0030  0000               	db	0
  1420     0031  0000               	db	0
  1421     0032  0000               	db	0
  1422     0033  0000               	db	0
  1423     0034  0000               	db	0
  1424     0035  0000               	db	0
  1425     0036  0000               	db	0
  1426     0037  0000               	db	0
  1427     0038  0000               	db	0
  1428     0039  0000               	db	0
  1429     003A  0000               	db	0
  1430     003B  0000               	db	0
  1431     003C  0000               	db	0
  1432     003D  0000               	db	0
  1433     003E  0000               	db	0
  1434     003F  0000               	db	0
  1435     0040  0000               	db	0
  1436     0041  0000               	db	0
  1437     0042  0000               	db	0
  1438     0043  0000               	db	0
  1439     0044  0000               	db	0
  1440     0045  0000               	db	0
  1441     0046  0000               	db	0
  1442     0047  0000               	db	0
  1443     0048  0000               	db	0
  1444     0049  0000               	db	0
  1445     004A  0000               	db	0
  1446     004B  0000               	db	0
  1447     004C  0000               	db	0
  1448     004D  0000               	db	0
  1449     004E  0000               	db	0
  1450     004F  0000               	db	0
  1451     0050  0000               	db	0
  1452     0051  0000               	db	0
  1453     0052  0000               	db	0
  1454     0053  0000               	db	0
  1455     0054  0000               	db	0
  1456     0055  0000               	db	0
  1457     0056  0000               	db	0
  1458     0057  0000               	db	0
  1459     0058  0000               	db	0
  1460     0059  0000               	db	0
  1461     005A  0000               	db	0
  1462     005B  0000               	db	0
  1463     005C  0000               	db	0
  1464     005D  0000               	db	0
  1465     005E  0000               	db	0
  1466     005F  0000               	db	0
  1467     0060  0000               	db	0
  1468     0061  0000               	db	0
  1469     0062  0000               	db	0
  1470     0063  0000               	db	0
  1471     0064  0000               	db	0
  1472     0065  0000               	db	0
  1473     0066  0000               	db	0
  1474     0067  0000               	db	0
  1475     0068  0000               	db	0
  1476     0069  0000               	db	0
  1477     006A  0000               	db	0
  1478     006B  0000               	db	0
  1479     006C  0000               	db	0
  1480     006D  0000               	db	0
  1481     006E  0000               	db	0
  1482     006F  0000               	db	0
  1483     0070  0000               	db	0
  1484     0071  0000               	db	0
  1485     0072  0000               	db	0
  1486     0073  0000               	db	0
  1487     0074  0000               	db	0
  1488     0075  0000               	db	0
  1489     0076  0000               	db	0
  1490     0077  0000               	db	0
  1491     0078  0000               	db	0
  1492     0079  0000               	db	0
  1493     007A  0000               	db	0
  1494     007B  0000               	db	0
  1495     007C  0000               	db	0
  1496     007D  0000               	db	0
  1497     007E  0000               	db	0
  1498     007F  0000               	db	0
  1499     0080  0000               	db	0
  1500     0081  0000               	db	0
  1501     0082  0000               	db	0
  1502     0083  0000               	db	0
  1503     0084  0000               	db	0
  1504     0085  0000               	db	0
  1505     0086  0000               	db	0
  1506     0087  0000               	db	0
  1507     0088  0000               	db	0
  1508     0089  0000               	db	0
  1509     008A  0000               	db	0
  1510     008B  0000               	db	0
  1511     008C  0000               	db	0
  1512     008D  0000               	db	0
  1513     008E  0000               	db	0
  1514     008F  0000               	db	0
  1515     0090  0000               	db	0
  1516     0091  0000               	db	0
  1517     0092  0000               	db	0
  1518     0093  0000               	db	0
  1519     0094  0000               	db	0
  1520     0095  0000               	db	0
  1521     0096  0000               	db	0
  1522     0097  0000               	db	0
  1523     0098  0000               	db	0
  1524     0099  0000               	db	0
  1525     009A  0000               	db	0
  1526     009B  0000               	db	0
  1527     009C  0000               	db	0
  1528     009D  0000               	db	0
  1529     009E  0000               	db	0
  1530     009F  0000               	db	0
  1531     00A0  0000               	db	0
  1532     00A1  0000               	db	0
  1533     00A2  0000               	db	0
  1534     00A3  0000               	db	0
  1535     00A4  0000               	db	0
  1536     00A5  0000               	db	0
  1537     00A6  0000               	db	0
  1538     00A7  0000               	db	0
  1539     00A8  0000               	db	0
  1540     00A9  0000               	db	0
  1541     00AA  0000               	db	0
  1542     00AB  0000               	db	0
  1543     00AC  0000               	db	0
  1544     00AD  0000               	db	0
  1545     00AE  0000               	db	0
  1546     00AF  0000               	db	0
  1547     00B0  0000               	db	0
  1548     00B1  0000               	db	0
  1549     00B2  0000               	db	0
  1550     00B3  0000               	db	0
  1551     00B4  0000               	db	0
  1552     00B5  0000               	db	0
  1553     00B6  0000               	db	0
  1554     00B7  0000               	db	0
  1555     00B8  0000               	db	0
  1556     00B9  0000               	db	0
  1557     00BA  0000               	db	0
  1558     00BB  0000               	db	0
  1559     00BC  0000               	db	0
  1560     00BD  0000               	db	0
  1561     00BE  0000               	db	0
  1562     00BF  0000               	db	0
  1563     00C0  0000               	db	0
  1564     00C1  0000               	db	0
  1565     00C2  0000               	db	0
  1566     00C3  0000               	db	0
  1567     00C4  0000               	db	0
  1568     00C5  0000               	db	0
  1569     00C6  0000               	db	0
  1570     00C7  0000               	db	0
  1571     00C8  0000               	db	0
  1572     00C9  0000               	db	0
  1573     00CA  0000               	db	0
  1574     00CB  0000               	db	0
  1575     00CC  0000               	db	0
  1576     00CD  0000               	db	0
  1577     00CE  0000               	db	0
  1578     00CF  0000               	db	0
  1579     00D0  0000               	db	0
  1580     00D1  0000               	db	0
  1581     00D2  0000               	db	0
  1582     00D3  0000               	db	0
  1583     00D4  0000               	db	0
  1584     00D5  0000               	db	0
  1585     00D6  0000               	db	0
  1586     00D7  0000               	db	0
  1587     00D8  0000               	db	0
  1588     00D9  0000               	db	0
  1589     00DA  0000               	db	0
  1590     00DB  0000               	db	0
  1591                           
  1592                           	psect	bssCOMMON
  1593     007D                     __pbssCOMMON:
  1594     007D                     _countName:
  1595     007D                     	ds	1
  1596                           
  1597                           	psect	bssBANK0
  1598     0020                     __pbssBANK0:
  1599     0020                     recebeGuardaNome@nameRx:
  1600     0020                     	ds	21
  1601     0035                     _EUSART_ErrorHandler:
  1602     0035                     	ds	2
  1603     0037                     _EUSART_OverrunErrorHandler:
  1604     0037                     	ds	2
  1605     0039                     _EUSART_FramingErrorHandler:
  1606     0039                     	ds	2
  1607     003B                     _nome_vazio:
  1608     003B                     	ds	1
  1609     003C                     _bufferRx:
  1610     003C                     	ds	1
  1611     003D                     _countRx:
  1612     003D                     	ds	1
  1613     003E                     _eusartRxLastError:
  1614     003E                     	ds	1
  1615                           
  1616                           	psect	clrtext
  1617     044F                     clear_ram0:	
  1618                           ;	Called with FSR0 containing the base address, and
  1619                           ;	WREG with the size to clear
  1620                           
  1621     044F  0064               	clrwdt	;clear the watchdog before getting into this loop
  1622     0450                     clrloop0:
  1623     0450  0180               	clrf	0	;clear RAM location pointed to by FSR
  1624     0451  3101               	addfsr 0,1
  1625     0452  0B89               	decfsz	9,f	;Have we reached the end of clearing yet?
  1626     0453  2C50               	goto	clrloop0	;have we reached the end yet?
  1627     0454  3400               	retlw	0	;all done for this memory range, return
  1628                           
  1629                           	psect	cstackCOMMON
  1630     0070                     __pcstackCOMMON:
  1631     0070                     ?_EUSART_SetFramingErrorHandler:
  1632     0070                     ?_EUSART_SetOverrunErrorHandler:	
  1633                           ; 1 bytes @ 0x0
  1634                           
  1635     0070                     ?_EUSART_SetErrorHandler:	
  1636                           ; 1 bytes @ 0x0
  1637                           
  1638     0070                     ?_PIN_MANAGER_Initialize:	
  1639                           ; 1 bytes @ 0x0
  1640                           
  1641     0070                     ??_PIN_MANAGER_Initialize:	
  1642                           ; 1 bytes @ 0x0
  1643                           
  1644     0070                     ?_OSCILLATOR_Initialize:	
  1645                           ; 1 bytes @ 0x0
  1646                           
  1647     0070                     ??_OSCILLATOR_Initialize:	
  1648                           ; 1 bytes @ 0x0
  1649                           
  1650     0070                     ?_WDT_Initialize:	
  1651                           ; 1 bytes @ 0x0
  1652                           
  1653     0070                     ??_WDT_Initialize:	
  1654                           ; 1 bytes @ 0x0
  1655                           
  1656     0070                     ?_EUSART_Initialize:	
  1657                           ; 1 bytes @ 0x0
  1658                           
  1659     0070                     ?_EUSART_is_rx_ready:	
  1660                           ; 1 bytes @ 0x0
  1661                           
  1662     0070                     ??_EUSART_is_rx_ready:	
  1663                           ; 1 bytes @ 0x0
  1664                           
  1665     0070                     ?_EUSART_Read:	
  1666                           ; 1 bytes @ 0x0
  1667                           
  1668     0070                     ??_EUSART_Read:	
  1669                           ; 1 bytes @ 0x0
  1670                           
  1671     0070                     ?_EUSART_Write:	
  1672                           ; 1 bytes @ 0x0
  1673                           
  1674     0070                     ??_EUSART_Write:	
  1675                           ; 1 bytes @ 0x0
  1676                           
  1677     0070                     ?_SYSTEM_Initialize:	
  1678                           ; 1 bytes @ 0x0
  1679                           
  1680     0070                     ?_enviaNomes:	
  1681                           ; 1 bytes @ 0x0
  1682                           
  1683     0070                     ?_recebeGuardaNome:	
  1684                           ; 1 bytes @ 0x0
  1685                           
  1686     0070                     ?_analisaRx:	
  1687                           ; 1 bytes @ 0x0
  1688                           
  1689     0070                     ?_main:	
  1690                           ; 1 bytes @ 0x0
  1691                           
  1692     0070                     ?___eecpymem:	
  1693                           ; 1 bytes @ 0x0
  1694                           
  1695     0070                     ?___memcpyee:	
  1696                           ; 1 bytes @ 0x0
  1697                           
  1698     0070                     ?___eetoc:	
  1699                           ; 1 bytes @ 0x0
  1700                           
  1701     0070                     ?___bmul:	
  1702                           ; 1 bytes @ 0x0
  1703                           
  1704     0070                     EUSART_Write@txData:	
  1705                           ; 1 bytes @ 0x0
  1706                           
  1707     0070                     ___eecpymem@from:	
  1708                           ; 1 bytes @ 0x0
  1709                           
  1710     0070                     ___memcpyee@from:	
  1711                           ; 1 bytes @ 0x0
  1712                           
  1713     0070                     ___bmul@multiplicand:	
  1714                           ; 1 bytes @ 0x0
  1715                           
  1716     0070                     EUSART_SetFramingErrorHandler@interruptHandler:	
  1717                           ; 1 bytes @ 0x0
  1718                           
  1719     0070                     EUSART_SetOverrunErrorHandler@interruptHandler:	
  1720                           ; 2 bytes @ 0x0
  1721                           
  1722     0070                     EUSART_SetErrorHandler@interruptHandler:	
  1723                           ; 2 bytes @ 0x0
  1724                           
  1725                           
  1726                           ; 2 bytes @ 0x0
  1727     0070                     	ds	1
  1728     0071                     ?_enviaMsg:
  1729     0071                     ??___bmul:	
  1730                           ; 1 bytes @ 0x1
  1731                           
  1732     0071                     ___eecpymem@size:	
  1733                           ; 1 bytes @ 0x1
  1734                           
  1735     0071                     ___memcpyee@size:	
  1736                           ; 1 bytes @ 0x1
  1737                           
  1738     0071                     enviaMsg@msg:	
  1739                           ; 1 bytes @ 0x1
  1740                           
  1741                           
  1742                           ; 2 bytes @ 0x1
  1743     0071                     	ds	1
  1744     0072                     ??_EUSART_SetFramingErrorHandler:
  1745     0072                     ??_EUSART_SetOverrunErrorHandler:	
  1746                           ; 1 bytes @ 0x2
  1747                           
  1748     0072                     ??_EUSART_SetErrorHandler:	
  1749                           ; 1 bytes @ 0x2
  1750                           
  1751     0072                     ??_EUSART_Initialize:	
  1752                           ; 1 bytes @ 0x2
  1753                           
  1754     0072                     ??_SYSTEM_Initialize:	
  1755                           ; 1 bytes @ 0x2
  1756                           
  1757     0072                     ??___eecpymem:	
  1758                           ; 1 bytes @ 0x2
  1759                           
  1760     0072                     ??___memcpyee:	
  1761                           ; 1 bytes @ 0x2
  1762                           
  1763     0072                     ___bmul@product:	
  1764                           ; 1 bytes @ 0x2
  1765                           
  1766                           
  1767                           ; 1 bytes @ 0x2
  1768     0072                     	ds	1
  1769     0073                     ??_enviaMsg:
  1770     0073                     ___bmul@multiplier:	
  1771                           ; 1 bytes @ 0x3
  1772                           
  1773                           
  1774                           ; 1 bytes @ 0x3
  1775     0073                     	ds	1
  1776     0074                     ___eecpymem@cp:
  1777     0074                     ___memcpyee@ptr:	
  1778                           ; 1 bytes @ 0x4
  1779                           
  1780                           
  1781                           ; 1 bytes @ 0x4
  1782     0074                     	ds	1
  1783     0075                     ___eecpymem@to:
  1784     0075                     ___memcpyee@to:	
  1785                           ; 1 bytes @ 0x5
  1786                           
  1787                           
  1788                           ; 1 bytes @ 0x5
  1789     0075                     	ds	1
  1790     0076                     ??___eetoc:
  1791     0076                     ?___ctoee:	
  1792                           ; 1 bytes @ 0x6
  1793                           
  1794     0076                     enviaMsg@i:	
  1795                           ; 1 bytes @ 0x6
  1796                           
  1797     0076                     ___eetoc@addr:	
  1798                           ; 1 bytes @ 0x6
  1799                           
  1800     0076                     ___ctoee@data:	
  1801                           ; 1 bytes @ 0x6
  1802                           
  1803                           
  1804                           ; 1 bytes @ 0x6
  1805     0076                     	ds	1
  1806     0077                     ??___ctoee:
  1807     0077                     ___eetoc@data:	
  1808                           ; 1 bytes @ 0x7
  1809                           
  1810     0077                     ___ctoee@addr:	
  1811                           ; 1 bytes @ 0x7
  1812                           
  1813                           
  1814                           ; 1 bytes @ 0x7
  1815     0077                     	ds	1
  1816     0078                     ??_enviaNomes:
  1817     0078                     ??_recebeGuardaNome:	
  1818                           ; 1 bytes @ 0x8
  1819                           
  1820                           
  1821                           ; 1 bytes @ 0x8
  1822     0078                     	ds	1
  1823     0079                     recebeGuardaNome@rxChar:
  1824                           
  1825                           ; 1 bytes @ 0x9
  1826     0079                     	ds	1
  1827     007A                     recebeGuardaNome@countByte:
  1828                           
  1829                           ; 1 bytes @ 0xA
  1830     007A                     	ds	1
  1831     007B                     ??_analisaRx:
  1832                           
  1833                           ; 1 bytes @ 0xB
  1834     007B                     	ds	1
  1835     007C                     ??_main:
  1836     007C                     main@rxChar:	
  1837                           ; 1 bytes @ 0xC
  1838                           
  1839                           
  1840                           ; 1 bytes @ 0xC
  1841     007C                     	ds	1
  1842                           
  1843                           	psect	cstackBANK0
  1844     003F                     __pcstackBANK0:
  1845     003F                     enviaNomes@j:
  1846                           
  1847                           ; 2 bytes @ 0x0
  1848     003F                     	ds	2
  1849     0041                     enviaNomes@j_412:
  1850                           
  1851                           ; 2 bytes @ 0x2
  1852     0041                     	ds	2
  1853     0043                     enviaNomes@i:
  1854                           
  1855                           ; 2 bytes @ 0x4
  1856     0043                     	ds	2
  1857     0045                     analisaRx@j:
  1858                           
  1859                           ; 2 bytes @ 0x6
  1860     0045                     	ds	2
  1861     0047                     analisaRx@i_425:
  1862                           
  1863                           ; 2 bytes @ 0x8
  1864     0047                     	ds	2
  1865     0049                     analisaRx@i:
  1866                           
  1867                           ; 2 bytes @ 0xA
  1868     0049                     	ds	2
  1869                           
  1870                           	psect	maintext
  1871     0543                     __pmaintext:	
  1872 ;;
  1873 ;;Main: autosize = 0, tempsize = 0, incstack = 0, save=0
  1874 ;;
  1875 ;; *************** function _main *****************
  1876 ;; Defined at:
  1877 ;;		line 324 in file "main.c"
  1878 ;; Parameters:    Size  Location     Type
  1879 ;;		None
  1880 ;; Auto vars:     Size  Location     Type
  1881 ;;  rxChar          1   12[COMMON] unsigned char 
  1882 ;; Return value:  Size  Location     Type
  1883 ;;                  1    wreg      void 
  1884 ;; Registers used:
  1885 ;;		wreg, fsr0l, fsr0h, fsr1l, fsr1h, status,2, status,0, pclath, cstack
  1886 ;; Tracked objects:
  1887 ;;		On entry : B1F/0
  1888 ;;		On exit  : 0/0
  1889 ;;		Unchanged: 0/0
  1890 ;; Data sizes:     COMMON   BANK0   BANK1   BANK2   BANK3   BANK4
  1891 ;;      Params:         0       0       0       0       0       0
  1892 ;;      Locals:         1       0       0       0       0       0
  1893 ;;      Temps:          0       0       0       0       0       0
  1894 ;;      Totals:         1       0       0       0       0       0
  1895 ;;Total ram usage:        1 bytes
  1896 ;; Hardware stack levels required when called: 4
  1897 ;; This function calls:
  1898 ;;		_EUSART_Read
  1899 ;;		_EUSART_is_rx_ready
  1900 ;;		_SYSTEM_Initialize
  1901 ;;		_analisaRx
  1902 ;; This function is called by:
  1903 ;;		Startup code after reset
  1904 ;; This function uses a non-reentrant model
  1905 ;;
  1906                           
  1907     0543                     _main:	
  1908                           ;psect for function _main
  1909                           
  1910     0543                     l1715:	
  1911                           ;incstack = 0
  1912                           ; Regs used in _main: [wreg-fsr1h+status,2+status,0+pclath+cstack]
  1913                           
  1914                           
  1915                           ;main.c: 327:     SYSTEM_Initialize();
  1916     0543  3184  2480  3185   	fcall	_SYSTEM_Initialize
  1917     0546                     l302:	
  1918                           ;main.c: 344:     while (1)
  1919                           
  1920                           
  1921                           ;main.c: 345:     {;main.c: 346:         if (EUSART_is_rx_ready()) {
  1922     0546  3184  2438  3185   	fcall	_EUSART_is_rx_ready
  1923     0549  3A00               	xorlw	0
  1924     054A  1903               	skipnz
  1925     054B  2D4D               	goto	u931
  1926     054C  2D4E               	goto	u930
  1927     054D                     u931:
  1928     054D  2D46               	goto	l302
  1929     054E                     u930:
  1930     054E                     l1717:
  1931                           
  1932                           ;main.c: 347:             uint8_t rxChar = EUSART_Read();
  1933     054E  3184  248D  3185   	fcall	_EUSART_Read
  1934     0551  00FC               	movwf	main@rxChar
  1935     0552                     l1719:
  1936                           
  1937                           ;main.c: 348:             if (rxChar == 0x4C || rxChar == 0x41 || rxChar == 0x50 || rxCh
      +                          ar == 0x52) {
  1938     0552  304C               	movlw	76
  1939     0553  067C               	xorwf	main@rxChar,w
  1940     0554  1903               	btfsc	3,2
  1941     0555  2D57               	goto	u941
  1942     0556  2D58               	goto	u940
  1943     0557                     u941:
  1944     0557  2D6A               	goto	l1727
  1945     0558                     u940:
  1946     0558                     l1721:
  1947     0558  3041               	movlw	65
  1948     0559  067C               	xorwf	main@rxChar,w
  1949     055A  1903               	btfsc	3,2
  1950     055B  2D5D               	goto	u951
  1951     055C  2D5E               	goto	u950
  1952     055D                     u951:
  1953     055D  2D6A               	goto	l1727
  1954     055E                     u950:
  1955     055E                     l1723:
  1956     055E  3050               	movlw	80
  1957     055F  067C               	xorwf	main@rxChar,w
  1958     0560  1903               	btfsc	3,2
  1959     0561  2D63               	goto	u961
  1960     0562  2D64               	goto	u960
  1961     0563                     u961:
  1962     0563  2D6A               	goto	l1727
  1963     0564                     u960:
  1964     0564                     l1725:
  1965     0564  3052               	movlw	82
  1966     0565  067C               	xorwf	main@rxChar,w
  1967     0566  1D03               	btfss	3,2
  1968     0567  2D69               	goto	u971
  1969     0568  2D6A               	goto	u970
  1970     0569                     u971:
  1971     0569  2D6E               	goto	l1729
  1972     056A                     u970:
  1973     056A                     l1727:
  1974                           
  1975                           ;main.c: 349:                 bufferRx = rxChar;
  1976     056A  087C               	movf	main@rxChar,w
  1977     056B  0020               	movlb	0	; select bank0
  1978     056C  00BC               	movwf	_bufferRx
  1979                           
  1980                           ;main.c: 350:             }
  1981     056D  2D46               	goto	l302
  1982     056E                     l1729:
  1983     056E  300D               	movlw	13
  1984     056F  067C               	xorwf	main@rxChar,w
  1985     0570  1D03               	btfss	3,2
  1986     0571  2D73               	goto	u981
  1987     0572  2D74               	goto	u980
  1988     0573                     u981:
  1989     0573  2D78               	goto	l303
  1990     0574                     u980:
  1991     0574                     l1731:
  1992                           
  1993                           ;main.c: 352:                 analisaRx();
  1994     0574  3186  26E5  3185   	fcall	_analisaRx
  1995     0577  2D46               	goto	l302
  1996     0578                     l303:	
  1997                           ;main.c: 354:         }
  1998                           
  1999     0578  2D46               	goto	l302
  2000     0579  3180  2802         	ljmp	start
  2001     057B                     __end_of_main:
  2002                           
  2003                           	psect	text1
  2004     06E5                     __ptext1:	
  2005 ;; *************** function _analisaRx *****************
  2006 ;; Defined at:
  2007 ;;		line 266 in file "main.c"
  2008 ;; Parameters:    Size  Location     Type
  2009 ;;		None
  2010 ;; Auto vars:     Size  Location     Type
  2011 ;;  j               2    6[BANK0 ] int 
  2012 ;;  i               2    8[BANK0 ] int 
  2013 ;;  i               2   10[BANK0 ] int 
  2014 ;; Return value:  Size  Location     Type
  2015 ;;                  1    wreg      void 
  2016 ;; Registers used:
  2017 ;;		wreg, fsr0l, fsr0h, fsr1l, fsr1h, status,2, status,0, pclath, cstack
  2018 ;; Tracked objects:
  2019 ;;		On entry : 0/0
  2020 ;;		On exit  : 0/0
  2021 ;;		Unchanged: 0/0
  2022 ;; Data sizes:     COMMON   BANK0   BANK1   BANK2   BANK3   BANK4
  2023 ;;      Params:         0       0       0       0       0       0
  2024 ;;      Locals:         0       6       0       0       0       0
  2025 ;;      Temps:          1       0       0       0       0       0
  2026 ;;      Totals:         1       6       0       0       0       0
  2027 ;;Total ram usage:        7 bytes
  2028 ;; Hardware stack levels used: 1
  2029 ;; Hardware stack levels required when called: 3
  2030 ;; This function calls:
  2031 ;;		_EUSART_Write
  2032 ;;		___bmul
  2033 ;;		___ctoee
  2034 ;;		___eetoc
  2035 ;;		_enviaMsg
  2036 ;;		_enviaNomes
  2037 ;;		_recebeGuardaNome
  2038 ;; This function is called by:
  2039 ;;		_main
  2040 ;; This function uses a non-reentrant model
  2041 ;;
  2042                           
  2043     06E5                     _analisaRx:	
  2044                           ;psect for function _analisaRx
  2045                           
  2046     06E5                     l1639:	
  2047                           ;incstack = 0
  2048                           ; Regs used in _analisaRx: [wreg-fsr1h+status,2+status,0+pclath+cstack]
  2049                           
  2050                           
  2051                           ;main.c: 267:     if(bufferRx == 0x4C){
  2052     06E5  304C               	movlw	76
  2053     06E6  0020               	movlb	0	; select bank0
  2054     06E7  063C               	xorwf	_bufferRx,w
  2055     06E8  1D03               	btfss	3,2
  2056     06E9  2EEB               	goto	u811
  2057     06EA  2EEC               	goto	u810
  2058     06EB                     u811:
  2059     06EB  2EFB               	goto	l1647
  2060     06EC                     u810:
  2061     06EC                     l1641:
  2062                           
  2063                           ;main.c: 268:         enviaMsg(msg1);
  2064     06EC  30BE               	movlw	low (_msg1| (0+32768))
  2065     06ED  00F1               	movwf	enviaMsg@msg
  2066     06EE  3088               	movlw	high (_msg1| (0+32768))
  2067     06EF  00F2               	movwf	enviaMsg@msg+1
  2068     06F0  3184  24EB  3186   	fcall	_enviaMsg
  2069     06F3                     l1643:
  2070                           
  2071                           ;main.c: 269:         enviaNomes();
  2072     06F3  3186  2626  3186   	fcall	_enviaNomes
  2073     06F6                     l1645:
  2074                           
  2075                           ;main.c: 270:         EUSART_Write(0x0D);
  2076     06F6  300D               	movlw	13
  2077     06F7  3184  2455  3186   	fcall	_EUSART_Write
  2078                           
  2079                           ;main.c: 271:     }
  2080     06FA  2F29               	goto	l1661
  2081     06FB                     l1647:
  2082     06FB  3041               	movlw	65
  2083     06FC  063C               	xorwf	_bufferRx,w
  2084     06FD  1D03               	btfss	3,2
  2085     06FE  2F00               	goto	u821
  2086     06FF  2F01               	goto	u820
  2087     0700                     u821:
  2088     0700  2F29               	goto	l1661
  2089     0701                     u820:
  2090     0701                     l1649:
  2091                           
  2092                           ;main.c: 273:         if (countName < 10){
  2093     0701  300A               	movlw	10
  2094     0702  027D               	subwf	_countName,w
  2095     0703  1803               	skipnc
  2096     0704  2F06               	goto	u831
  2097     0705  2F07               	goto	u830
  2098     0706                     u831:
  2099     0706  2F21               	goto	l1659
  2100     0707                     u830:
  2101     0707                     l1651:
  2102                           
  2103                           ;main.c: 274:             recebeGuardaNome();
  2104     0707  3185  25C3  3186   	fcall	_recebeGuardaNome
  2105     070A                     l1653:
  2106                           
  2107                           ;main.c: 275:             ee[countName].estado = 1;
  2108     070A  01F6               	clrf	___ctoee@data
  2109     070B  0AF6               	incf	___ctoee@data,f
  2110     070C  3016               	movlw	22
  2111     070D  00F0               	movwf	___bmul@multiplicand
  2112     070E  087D               	movf	_countName,w
  2113     070F  3184  249C  3186   	fcall	___bmul
  2114     0712  3E00               	addlw	low _ee
  2115     0713  3184  245F  3186   	fcall	___ctoee
  2116     0716                     l1655:
  2117                           
  2118                           ;main.c: 276:             if(!nome_vazio){
  2119     0716  0020               	movlb	0	; select bank0
  2120     0717  083B               	movf	_nome_vazio,w
  2121     0718  1D03               	btfss	3,2
  2122     0719  2F1B               	goto	u841
  2123     071A  2F1C               	goto	u840
  2124     071B                     u841:
  2125     071B  2F29               	goto	l275
  2126     071C                     u840:
  2127     071C                     l1657:
  2128                           
  2129                           ;main.c: 277:                 countName++;
  2130     071C  3001               	movlw	1
  2131     071D  00FB               	movwf	??_analisaRx
  2132     071E  087B               	movf	??_analisaRx,w
  2133     071F  07FD               	addwf	_countName,f
  2134     0720  2F29               	goto	l1661
  2135     0721                     l1659:
  2136                           
  2137                           ;main.c: 281:             enviaMsg(msg7);
  2138     0721  307E               	movlw	low (_msg7| (0+32768))
  2139     0722  00F1               	movwf	enviaMsg@msg
  2140     0723  3088               	movlw	high (_msg7| (0+32768))
  2141     0724  00F2               	movwf	enviaMsg@msg+1
  2142     0725  3184  24EB  3186   	fcall	_enviaMsg
  2143     0728  2F29               	goto	l1661
  2144     0729                     l275:	
  2145                           ;main.c: 283:     }
  2146                           
  2147     0729                     l1661:
  2148                           
  2149                           ;main.c: 284:     if(bufferRx == 0x50){
  2150     0729  3050               	movlw	80
  2151     072A  0020               	movlb	0	; select bank0
  2152     072B  063C               	xorwf	_bufferRx,w
  2153     072C  1D03               	btfss	3,2
  2154     072D  2F2F               	goto	u851
  2155     072E  2F30               	goto	u850
  2156     072F                     u851:
  2157     072F  2FBE               	goto	l1697
  2158     0730                     u850:
  2159     0730                     l1663:
  2160                           
  2161                           ;main.c: 285:         int i = 0;
  2162     0730  01C9               	clrf	analisaRx@i
  2163     0731  01CA               	clrf	analisaRx@i+1
  2164                           
  2165                           ;main.c: 286:         while(i<=10){
  2166     0732  2FB0               	goto	l280
  2167     0733                     l1665:
  2168                           
  2169                           ;main.c: 287:             if(ee[i].estado == 1){
  2170     0733  3016               	movlw	22
  2171     0734  00F0               	movwf	___bmul@multiplicand
  2172     0735  0020               	movlb	0	; select bank0
  2173     0736  0849               	movf	analisaRx@i,w
  2174     0737  3184  249C  3186   	fcall	___bmul
  2175     073A  3E00               	addlw	low _ee
  2176     073B  3184  2469  3186   	fcall	___eetoc
  2177     073E  3A01               	xorlw	1
  2178     073F  1D03               	skipz
  2179     0740  2F42               	goto	u861
  2180     0741  2F43               	goto	u860
  2181     0742                     u861:
  2182     0742  2F9C               	goto	l1689
  2183     0743                     u860:
  2184     0743                     l1667:
  2185                           
  2186                           ;main.c: 288:                 enviaMsg(msg3);
  2187     0743  30E3               	movlw	low (_msg3| (0+32768))
  2188     0744  00F1               	movwf	enviaMsg@msg
  2189     0745  3088               	movlw	high (_msg3| (0+32768))
  2190     0746  00F2               	movwf	enviaMsg@msg+1
  2191     0747  3184  24EB  3186   	fcall	_enviaMsg
  2192     074A                     l1669:
  2193                           
  2194                           ;main.c: 289:                 EUSART_Write(0x20);
  2195     074A  3020               	movlw	32
  2196     074B  3184  2455  3186   	fcall	_EUSART_Write
  2197     074E                     l1671:
  2198                           
  2199                           ;main.c: 290:                 EUSART_Write(0x20);
  2200     074E  3020               	movlw	32
  2201     074F  3184  2455  3186   	fcall	_EUSART_Write
  2202     0752                     l1673:
  2203                           
  2204                           ;main.c: 291:                 for(int j = 0; j<20 && ee[i].name[j] != 0;j++){
  2205     0752  0020               	movlb	0	; select bank0
  2206     0753  01C5               	clrf	analisaRx@j
  2207     0754  01C6               	clrf	analisaRx@j+1
  2208     0755  2F6B               	goto	l1679
  2209     0756                     l1675:
  2210                           
  2211                           ;main.c: 292:                     EUSART_Write(ee[i].name[j]);
  2212     0756  3016               	movlw	22
  2213     0757  00F0               	movwf	___bmul@multiplicand
  2214     0758  0020               	movlb	0	; select bank0
  2215     0759  0849               	movf	analisaRx@i,w
  2216     075A  3184  249C  3186   	fcall	___bmul
  2217     075D  3E01               	addlw	low (_ee+1)
  2218     075E  0020               	movlb	0	; select bank0
  2219     075F  0745               	addwf	analisaRx@j,w
  2220     0760  3184  2469  3186   	fcall	___eetoc
  2221     0763  3184  2455  3186   	fcall	_EUSART_Write
  2222     0766                     l1677:
  2223                           
  2224                           ;main.c: 293:                 }
  2225     0766  3001               	movlw	1
  2226     0767  0020               	movlb	0	; select bank0
  2227     0768  07C5               	addwf	analisaRx@j,f
  2228     0769  3000               	movlw	0
  2229     076A  3DC6               	addwfc	analisaRx@j+1,f
  2230     076B                     l1679:
  2231     076B  0846               	movf	analisaRx@j+1,w
  2232     076C  3A80               	xorlw	128
  2233     076D  00FB               	movwf	??_analisaRx
  2234     076E  3080               	movlw	128
  2235     076F  027B               	subwf	??_analisaRx,w
  2236     0770  1D03               	skipz
  2237     0771  2F74               	goto	u875
  2238     0772  3014               	movlw	20
  2239     0773  0245               	subwf	analisaRx@j,w
  2240     0774                     u875:
  2241     0774  1803               	skipnc
  2242     0775  2F77               	goto	u871
  2243     0776  2F78               	goto	u870
  2244     0777                     u871:
  2245     0777  2F8A               	goto	l1683
  2246     0778                     u870:
  2247     0778                     l1681:
  2248     0778  3016               	movlw	22
  2249     0779  00F0               	movwf	___bmul@multiplicand
  2250     077A  0020               	movlb	0	; select bank0
  2251     077B  0849               	movf	analisaRx@i,w
  2252     077C  3184  249C  3186   	fcall	___bmul
  2253     077F  3E01               	addlw	low (_ee+1)
  2254     0780  0020               	movlb	0	; select bank0
  2255     0781  0745               	addwf	analisaRx@j,w
  2256     0782  3184  2469  3186   	fcall	___eetoc
  2257     0785  3A00               	xorlw	0
  2258     0786  1D03               	skipz
  2259     0787  2F89               	goto	u881
  2260     0788  2F8A               	goto	u880
  2261     0789                     u881:
  2262     0789  2F56               	goto	l1675
  2263     078A                     u880:
  2264     078A                     l1683:
  2265                           
  2266                           ;main.c: 294:                 EUSART_Write(0x0D);
  2267     078A  300D               	movlw	13
  2268     078B  3184  2455  3186   	fcall	_EUSART_Write
  2269     078E                     l1685:
  2270                           
  2271                           ;main.c: 295:                 ee[i].estado = 2;
  2272     078E  3002               	movlw	2
  2273     078F  00F6               	movwf	___ctoee@data
  2274     0790  3016               	movlw	22
  2275     0791  00F0               	movwf	___bmul@multiplicand
  2276     0792  0020               	movlb	0	; select bank0
  2277     0793  0849               	movf	analisaRx@i,w
  2278     0794  3184  249C  3186   	fcall	___bmul
  2279     0797  3E00               	addlw	low _ee
  2280     0798  3184  245F  3186   	fcall	___ctoee
  2281                           
  2282                           ;main.c: 296:                 break;
  2283     079B  2FF3               	goto	l297
  2284     079C                     l1689:
  2285     079C  300A               	movlw	10
  2286     079D  0020               	movlb	0	; select bank0
  2287     079E  0649               	xorwf	analisaRx@i,w
  2288     079F  044A               	iorwf	analisaRx@i+1,w
  2289     07A0  1D03               	btfss	3,2
  2290     07A1  2FA3               	goto	u891
  2291     07A2  2FA4               	goto	u890
  2292     07A3                     u891:
  2293     07A3  2FAB               	goto	l1693
  2294     07A4                     u890:
  2295     07A4                     l1691:
  2296                           
  2297                           ;main.c: 299:                 enviaMsg(msg6);
  2298     07A4  3032               	movlw	low (_msg6| (0+32768))
  2299     07A5  00F1               	movwf	enviaMsg@msg
  2300     07A6  3088               	movlw	high (_msg6| (0+32768))
  2301     07A7  00F2               	movwf	enviaMsg@msg+1
  2302     07A8  3184  24EB  3186   	fcall	_enviaMsg
  2303     07AB                     l1693:
  2304                           
  2305                           ;main.c: 300:                 i++;
  2306     07AB  3001               	movlw	1
  2307     07AC  0020               	movlb	0	; select bank0
  2308     07AD  07C9               	addwf	analisaRx@i,f
  2309     07AE  3000               	movlw	0
  2310     07AF  3DCA               	addwfc	analisaRx@i+1,f
  2311     07B0                     l280:	
  2312                           ;main.c: 305:         }
  2313                           
  2314                           
  2315                           ;main.c: 286:         while(i<=10){
  2316     07B0  084A               	movf	analisaRx@i+1,w
  2317     07B1  3A80               	xorlw	128
  2318     07B2  00FB               	movwf	??_analisaRx
  2319     07B3  3080               	movlw	128
  2320     07B4  027B               	subwf	??_analisaRx,w
  2321     07B5  1D03               	skipz
  2322     07B6  2FB9               	goto	u905
  2323     07B7  300B               	movlw	11
  2324     07B8  0249               	subwf	analisaRx@i,w
  2325     07B9                     u905:
  2326     07B9  1C03               	skipc
  2327     07BA  2FBC               	goto	u901
  2328     07BB  2FBD               	goto	u900
  2329     07BC                     u901:
  2330     07BC  2F33               	goto	l1665
  2331     07BD                     u900:
  2332     07BD  2FF3               	goto	l297
  2333     07BE                     l1697:
  2334     07BE  3052               	movlw	82
  2335     07BF  063C               	xorwf	_bufferRx,w
  2336     07C0  1D03               	btfss	3,2
  2337     07C1  2FC3               	goto	u911
  2338     07C2  2FC4               	goto	u910
  2339     07C3                     u911:
  2340     07C3  2FEC               	goto	l1713
  2341     07C4                     u910:
  2342     07C4                     l1699:
  2343                           
  2344                           ;main.c: 308:         for(int i = 0; i<=10; i++){
  2345     07C4  01C7               	clrf	analisaRx@i_425
  2346     07C5  01C8               	clrf	analisaRx@i_425+1
  2347     07C6                     l1705:
  2348                           
  2349                           ;main.c: 309:             ee[i].estado = 0;
  2350     07C6  01F6               	clrf	___ctoee@data
  2351     07C7  3016               	movlw	22
  2352     07C8  00F0               	movwf	___bmul@multiplicand
  2353     07C9  0020               	movlb	0	; select bank0
  2354     07CA  0847               	movf	analisaRx@i_425,w
  2355     07CB  3184  249C  3186   	fcall	___bmul
  2356     07CE  3E00               	addlw	low _ee
  2357     07CF  3184  245F  3186   	fcall	___ctoee
  2358     07D2                     l1707:
  2359                           
  2360                           ;main.c: 310:         }
  2361     07D2  3001               	movlw	1
  2362     07D3  0020               	movlb	0	; select bank0
  2363     07D4  07C7               	addwf	analisaRx@i_425,f
  2364     07D5  3000               	movlw	0
  2365     07D6  3DC8               	addwfc	analisaRx@i_425+1,f
  2366     07D7                     l1709:
  2367     07D7  0848               	movf	analisaRx@i_425+1,w
  2368     07D8  3A80               	xorlw	128
  2369     07D9  00FB               	movwf	??_analisaRx
  2370     07DA  3080               	movlw	128
  2371     07DB  027B               	subwf	??_analisaRx,w
  2372     07DC  1D03               	skipz
  2373     07DD  2FE0               	goto	u925
  2374     07DE  300B               	movlw	11
  2375     07DF  0247               	subwf	analisaRx@i_425,w
  2376     07E0                     u925:
  2377     07E0  1C03               	skipc
  2378     07E1  2FE3               	goto	u921
  2379     07E2  2FE4               	goto	u920
  2380     07E3                     u921:
  2381     07E3  2FC6               	goto	l1705
  2382     07E4                     u920:
  2383     07E4                     l1711:
  2384                           
  2385                           ;main.c: 311:         enviaMsg(msg2);
  2386     07E4  30A2               	movlw	low (_msg2| (0+32768))
  2387     07E5  00F1               	movwf	enviaMsg@msg
  2388     07E6  3088               	movlw	high (_msg2| (0+32768))
  2389     07E7  00F2               	movwf	enviaMsg@msg+1
  2390     07E8  3184  24EB  3186   	fcall	_enviaMsg
  2391                           
  2392                           ;main.c: 312:     }
  2393     07EB  2FF3               	goto	l297
  2394     07EC                     l1713:
  2395                           
  2396                           ;main.c: 314:         enviaMsg(msg0);
  2397     07EC  3000               	movlw	low (_msg0| (0+32768))
  2398     07ED  00F1               	movwf	enviaMsg@msg
  2399     07EE  3088               	movlw	high (_msg0| (0+32768))
  2400     07EF  00F2               	movwf	enviaMsg@msg+1
  2401     07F0  3184  24EB  3186   	fcall	_enviaMsg
  2402     07F3                     l297:
  2403     07F3  0008               	return
  2404     07F4                     __end_of_analisaRx:
  2405                           
  2406                           	psect	text2
  2407     05C3                     __ptext2:	
  2408 ;; *************** function _recebeGuardaNome *****************
  2409 ;; Defined at:
  2410 ;;		line 234 in file "main.c"
  2411 ;; Parameters:    Size  Location     Type
  2412 ;;		None
  2413 ;; Auto vars:     Size  Location     Type
  2414 ;;  rxChar          1    9[COMMON] unsigned char 
  2415 ;;  countByte       1   10[COMMON] unsigned char 
  2416 ;; Return value:  Size  Location     Type
  2417 ;;                  1    wreg      void 
  2418 ;; Registers used:
  2419 ;;		wreg, fsr0l, fsr0h, fsr1l, fsr1h, status,2, status,0, pclath, cstack
  2420 ;; Tracked objects:
  2421 ;;		On entry : 0/0
  2422 ;;		On exit  : 0/0
  2423 ;;		Unchanged: 0/0
  2424 ;; Data sizes:     COMMON   BANK0   BANK1   BANK2   BANK3   BANK4
  2425 ;;      Params:         0       0       0       0       0       0
  2426 ;;      Locals:         2       0       0       0       0       0
  2427 ;;      Temps:          1       0       0       0       0       0
  2428 ;;      Totals:         3       0       0       0       0       0
  2429 ;;Total ram usage:        3 bytes
  2430 ;; Hardware stack levels used: 1
  2431 ;; Hardware stack levels required when called: 2
  2432 ;; This function calls:
  2433 ;;		_EUSART_Read
  2434 ;;		_EUSART_is_rx_ready
  2435 ;;		___bmul
  2436 ;;		___ctoee
  2437 ;;		_enviaMsg
  2438 ;; This function is called by:
  2439 ;;		_analisaRx
  2440 ;; This function uses a non-reentrant model
  2441 ;;
  2442                           
  2443     05C3                     _recebeGuardaNome:	
  2444                           ;psect for function _recebeGuardaNome
  2445                           
  2446     05C3                     l1597:	
  2447                           ;incstack = 0
  2448                           ; Regs used in _recebeGuardaNome: [wreg-fsr1h+status,2+status,0+pclath+cstack]
  2449                           
  2450                           
  2451                           ;main.c: 235:     static char nameRx[21];;main.c: 236:     uint8_t countByte = 0;
  2452     05C3  01FA               	clrf	recebeGuardaNome@countByte
  2453                           
  2454                           ;main.c: 237:     countRx = 0;
  2455     05C4  0020               	movlb	0	; select bank0
  2456     05C5  01BD               	clrf	_countRx
  2457     05C6                     l1599:
  2458                           
  2459                           ;main.c: 238:     enviaMsg(msg4);
  2460     05C6  30D4               	movlw	low (_msg4| (0+32768))
  2461     05C7  00F1               	movwf	enviaMsg@msg
  2462     05C8  3088               	movlw	high (_msg4| (0+32768))
  2463     05C9  00F2               	movwf	enviaMsg@msg+1
  2464     05CA  3184  24EB  3185   	fcall	_enviaMsg
  2465                           
  2466                           ;main.c: 239:     while (countRx < (21 - 1)){
  2467     05CD  2DEC               	goto	l1615
  2468     05CE                     l1601:
  2469                           
  2470                           ;main.c: 240:         if (EUSART_is_rx_ready()) {
  2471     05CE  3184  2438  3185   	fcall	_EUSART_is_rx_ready
  2472     05D1  3A00               	xorlw	0
  2473     05D2  1903               	skipnz
  2474     05D3  2DD5               	goto	u761
  2475     05D4  2DD6               	goto	u760
  2476     05D5                     u761:
  2477     05D5  2DEC               	goto	l1615
  2478     05D6                     u760:
  2479     05D6                     l1603:
  2480                           
  2481                           ;main.c: 241:             uint8_t rxChar = EUSART_Read();
  2482     05D6  3184  248D  3185   	fcall	_EUSART_Read
  2483     05D9  00F9               	movwf	recebeGuardaNome@rxChar
  2484     05DA                     l1605:
  2485                           
  2486                           ;main.c: 242:             if (rxChar == 0x0D){
  2487     05DA  300D               	movlw	13
  2488     05DB  0679               	xorwf	recebeGuardaNome@rxChar,w
  2489     05DC  1D03               	btfss	3,2
  2490     05DD  2DDF               	goto	u771
  2491     05DE  2DE0               	goto	u770
  2492     05DF                     u771:
  2493     05DF  2DE1               	goto	l1611
  2494     05E0                     u770:
  2495     05E0  2DF3               	goto	l1617
  2496     05E1                     l1611:
  2497                           
  2498                           ;main.c: 246:                 nameRx[countRx] = rxChar;
  2499     05E1  0020               	movlb	0	; select bank0
  2500     05E2  083D               	movf	_countRx,w
  2501     05E3  3E20               	addlw	(low (recebeGuardaNome@nameRx| 0))& (0+255)
  2502     05E4  0086               	movwf	6
  2503     05E5  0187               	clrf	7
  2504     05E6  0879               	movf	recebeGuardaNome@rxChar,w
  2505     05E7  0081               	movwf	1
  2506     05E8                     l1613:
  2507                           
  2508                           ;main.c: 247:                 countRx++;
  2509     05E8  3001               	movlw	1
  2510     05E9  00F8               	movwf	??_recebeGuardaNome
  2511     05EA  0878               	movf	??_recebeGuardaNome,w
  2512     05EB  07BD               	addwf	_countRx,f
  2513     05EC                     l1615:
  2514                           
  2515                           ;main.c: 239:     while (countRx < (21 - 1)){
  2516     05EC  3014               	movlw	20
  2517     05ED  0020               	movlb	0	; select bank0
  2518     05EE  023D               	subwf	_countRx,w
  2519     05EF  1C03               	skipc
  2520     05F0  2DF2               	goto	u781
  2521     05F1  2DF3               	goto	u780
  2522     05F2                     u781:
  2523     05F2  2DCE               	goto	l1601
  2524     05F3                     u780:
  2525     05F3                     l1617:
  2526                           
  2527                           ;main.c: 251:     nameRx[countRx] = 0;
  2528     05F3  0020               	movlb	0	; select bank0
  2529     05F4  083D               	movf	_countRx,w
  2530     05F5  3E20               	addlw	(low (recebeGuardaNome@nameRx| 0))& (0+255)
  2531     05F6  0086               	movwf	6
  2532     05F7  0187               	clrf	7
  2533     05F8  0181               	clrf	1
  2534     05F9                     l1619:
  2535                           
  2536                           ;main.c: 252:     if(nameRx[0] == 0){
  2537     05F9  0820               	movf	recebeGuardaNome@nameRx,w
  2538     05FA  1D03               	btfss	3,2
  2539     05FB  2DFD               	goto	u791
  2540     05FC  2DFE               	goto	u790
  2541     05FD                     u791:
  2542     05FD  2E08               	goto	l1629
  2543     05FE                     u790:
  2544     05FE                     l1621:
  2545                           
  2546                           ;main.c: 253:         nome_vazio = 1;
  2547     05FE  01BB               	clrf	_nome_vazio
  2548     05FF  0ABB               	incf	_nome_vazio,f
  2549     0600                     l1623:
  2550                           
  2551                           ;main.c: 254:         enviaMsg(msg5);
  2552     0600  3058               	movlw	low (_msg5| (0+32768))
  2553     0601  00F1               	movwf	enviaMsg@msg
  2554     0602  3088               	movlw	high (_msg5| (0+32768))
  2555     0603  00F2               	movwf	enviaMsg@msg+1
  2556     0604  3184  24EB  3185   	fcall	_enviaMsg
  2557     0607  2E25               	goto	l266
  2558     0608                     l1629:
  2559                           
  2560                           ;main.c: 258:         nome_vazio = 0;
  2561     0608  01BB               	clrf	_nome_vazio
  2562                           
  2563                           ;main.c: 259:         while(countByte < 21){
  2564     0609  2E1F               	goto	l1635
  2565     060A                     l1631:
  2566                           
  2567                           ;main.c: 260:             ee[countName].name[countByte] = nameRx[countByte];
  2568     060A  087A               	movf	recebeGuardaNome@countByte,w
  2569     060B  3E20               	addlw	(low (recebeGuardaNome@nameRx| 0))& (0+255)
  2570     060C  0086               	movwf	6
  2571     060D  0187               	clrf	7
  2572     060E  0801               	movf	1,w
  2573     060F  00F6               	movwf	___ctoee@data
  2574     0610  3016               	movlw	22
  2575     0611  00F0               	movwf	___bmul@multiplicand
  2576     0612  087D               	movf	_countName,w
  2577     0613  3184  249C  3185   	fcall	___bmul
  2578     0616  3E01               	addlw	low (_ee+1)
  2579     0617  077A               	addwf	recebeGuardaNome@countByte,w
  2580     0618  3184  245F  3185   	fcall	___ctoee
  2581     061B                     l1633:
  2582                           
  2583                           ;main.c: 261:             countByte++;
  2584     061B  3001               	movlw	1
  2585     061C  00F8               	movwf	??_recebeGuardaNome
  2586     061D  0878               	movf	??_recebeGuardaNome,w
  2587     061E  07FA               	addwf	recebeGuardaNome@countByte,f
  2588     061F                     l1635:
  2589                           
  2590                           ;main.c: 259:         while(countByte < 21){
  2591     061F  3015               	movlw	21
  2592     0620  027A               	subwf	recebeGuardaNome@countByte,w
  2593     0621  1C03               	skipc
  2594     0622  2E24               	goto	u801
  2595     0623  2E25               	goto	u800
  2596     0624                     u801:
  2597     0624  2E0A               	goto	l1631
  2598     0625                     u800:
  2599     0625                     l266:
  2600     0625  0008               	return
  2601     0626                     __end_of_recebeGuardaNome:
  2602                           
  2603                           	psect	text3
  2604     04EB                     __ptext3:	
  2605 ;; *************** function _enviaMsg *****************
  2606 ;; Defined at:
  2607 ;;		line 205 in file "main.c"
  2608 ;; Parameters:    Size  Location     Type
  2609 ;;  msg             2    1[COMMON] PTR const unsigned char 
  2610 ;;		 -> msg0(50), msg2(28), msg6(38), msg3(9), 
  2611 ;;		 -> msg7(36), msg1(22), msg5(38), msg4(15), 
  2612 ;; Auto vars:     Size  Location     Type
  2613 ;;  i               1    6[COMMON] unsigned char 
  2614 ;; Return value:  Size  Location     Type
  2615 ;;                  1    wreg      void 
  2616 ;; Registers used:
  2617 ;;		wreg, fsr0l, fsr0h, status,2, status,0, pclath, cstack
  2618 ;; Tracked objects:
  2619 ;;		On entry : 0/0
  2620 ;;		On exit  : 0/0
  2621 ;;		Unchanged: 0/0
  2622 ;; Data sizes:     COMMON   BANK0   BANK1   BANK2   BANK3   BANK4
  2623 ;;      Params:         2       0       0       0       0       0
  2624 ;;      Locals:         1       0       0       0       0       0
  2625 ;;      Temps:          3       0       0       0       0       0
  2626 ;;      Totals:         6       0       0       0       0       0
  2627 ;;Total ram usage:        6 bytes
  2628 ;; Hardware stack levels used: 1
  2629 ;; Hardware stack levels required when called: 1
  2630 ;; This function calls:
  2631 ;;		_EUSART_Write
  2632 ;; This function is called by:
  2633 ;;		_recebeGuardaNome
  2634 ;;		_analisaRx
  2635 ;; This function uses a non-reentrant model
  2636 ;;
  2637                           
  2638     04EB                     _enviaMsg:	
  2639                           ;psect for function _enviaMsg
  2640                           
  2641     04EB                     l1485:	
  2642                           ;incstack = 0
  2643                           ; Regs used in _enviaMsg: [wreg-fsr0h+status,2+status,0+pclath+cstack]
  2644                           
  2645                           
  2646                           ;main.c: 206:     uint8_t i = 0;
  2647     04EB  01F6               	clrf	enviaMsg@i
  2648                           
  2649                           ;main.c: 207:     while (msg[i] > 0) {
  2650     04EC  2D00               	goto	l1491
  2651     04ED                     l1487:
  2652                           
  2653                           ;main.c: 208:         EUSART_Write(msg[i]);
  2654     04ED  0872               	movf	enviaMsg@msg+1,w
  2655     04EE  00F4               	movwf	??_enviaMsg+1
  2656     04EF  0871               	movf	enviaMsg@msg,w
  2657     04F0  00F3               	movwf	??_enviaMsg
  2658     04F1  0876               	movf	enviaMsg@i,w
  2659     04F2  0773               	addwf	??_enviaMsg,w
  2660     04F3  0084               	movwf	4
  2661     04F4  0874               	movf	??_enviaMsg+1,w
  2662     04F5  1803               	skipnc
  2663     04F6  0A74               	incf	??_enviaMsg+1,w
  2664     04F7  0085               	movwf	5
  2665     04F8  0800               	movf	0,w	;code access
  2666     04F9  3184  2455  3184   	fcall	_EUSART_Write
  2667     04FC                     l1489:
  2668                           
  2669                           ;main.c: 209:         i++;
  2670     04FC  3001               	movlw	1
  2671     04FD  00F3               	movwf	??_enviaMsg
  2672     04FE  0873               	movf	??_enviaMsg,w
  2673     04FF  07F6               	addwf	enviaMsg@i,f
  2674     0500                     l1491:
  2675                           
  2676                           ;main.c: 207:     while (msg[i] > 0) {
  2677     0500  0872               	movf	enviaMsg@msg+1,w
  2678     0501  00F4               	movwf	??_enviaMsg+1
  2679     0502  0871               	movf	enviaMsg@msg,w
  2680     0503  00F3               	movwf	??_enviaMsg
  2681     0504  0876               	movf	enviaMsg@i,w
  2682     0505  0773               	addwf	??_enviaMsg,w
  2683     0506  0084               	movwf	4
  2684     0507  0874               	movf	??_enviaMsg+1,w
  2685     0508  1803               	skipnc
  2686     0509  0A74               	incf	??_enviaMsg+1,w
  2687     050A  0085               	movwf	5
  2688     050B  0012               	moviw fsr0++
  2689     050C  1D03               	btfss	3,2
  2690     050D  2D0F               	goto	u651
  2691     050E  2D10               	goto	u650
  2692     050F                     u651:
  2693     050F  2CED               	goto	l1487
  2694     0510                     u650:
  2695     0510                     l1493:
  2696                           
  2697                           ;main.c: 211:     EUSART_Write(0x0D);
  2698     0510  300D               	movlw	13
  2699     0511  3184  2455  3184   	fcall	_EUSART_Write
  2700     0514                     l236:
  2701     0514  0008               	return
  2702     0515                     __end_of_enviaMsg:
  2703                           
  2704                           	psect	text4
  2705     045F                     __ptext4:	
  2706 ;; *************** function ___ctoee *****************
  2707 ;; Defined at:
  2708 ;;		line 150 in file "C:\Program Files\Microchip\xc8\v2.46\pic\sources\c99\pic\__eeprom.c"
  2709 ;; Parameters:    Size  Location     Type
  2710 ;;  addr            1    wreg     PTR eeprom void 
  2711 ;;		 -> ee(220), 
  2712 ;;  data            1    6[COMMON] unsigned char 
  2713 ;; Auto vars:     Size  Location     Type
  2714 ;;  addr            1    7[COMMON] PTR eeprom void 
  2715 ;;		 -> ee(220), 
  2716 ;; Return value:  Size  Location     Type
  2717 ;;                  1    wreg      unsigned char 
  2718 ;; Registers used:
  2719 ;;		wreg, fsr1l, fsr1h, status,2, status,0, pclath, cstack
  2720 ;; Tracked objects:
  2721 ;;		On entry : 0/0
  2722 ;;		On exit  : 0/0
  2723 ;;		Unchanged: 0/0
  2724 ;; Data sizes:     COMMON   BANK0   BANK1   BANK2   BANK3   BANK4
  2725 ;;      Params:         1       0       0       0       0       0
  2726 ;;      Locals:         1       0       0       0       0       0
  2727 ;;      Temps:          0       0       0       0       0       0
  2728 ;;      Totals:         2       0       0       0       0       0
  2729 ;;Total ram usage:        2 bytes
  2730 ;; Hardware stack levels used: 1
  2731 ;; Hardware stack levels required when called: 1
  2732 ;; This function calls:
  2733 ;;		___memcpyee
  2734 ;; This function is called by:
  2735 ;;		_recebeGuardaNome
  2736 ;;		_analisaRx
  2737 ;; This function uses a non-reentrant model
  2738 ;;
  2739                           
  2740     045F                     ___ctoee:	
  2741                           ;psect for function ___ctoee
  2742                           
  2743                           
  2744                           ;incstack = 0
  2745                           ; Regs used in ___ctoee: [wreg+fsr1l+fsr1h+status,2+status,0+pclath+cstack]
  2746                           ;___ctoee@addr stored from wreg
  2747     045F  00F7               	movwf	___ctoee@addr
  2748     0460                     l1501:
  2749     0460  3076               	movlw	(low (___ctoee@data| 0))& (0+255)
  2750     0461  00F0               	movwf	___memcpyee@from
  2751     0462  01F1               	clrf	___memcpyee@size
  2752     0463  0AF1               	incf	___memcpyee@size,f
  2753     0464  0877               	movf	___ctoee@addr,w
  2754     0465  3185  257B  3184   	fcall	___memcpyee
  2755     0468                     l369:
  2756     0468  0008               	return
  2757     0469                     __end_of___ctoee:
  2758                           
  2759                           	psect	text5
  2760     057B                     __ptext5:	
  2761 ;; *************** function ___memcpyee *****************
  2762 ;; Defined at:
  2763 ;;		line 39 in file "C:\Program Files\Microchip\xc8\v2.46\pic\sources\c99\pic\__eeprom.c"
  2764 ;; Parameters:    Size  Location     Type
  2765 ;;  to              1    wreg     PTR eeprom unsigned char
  2766 ;;		 -> ee(220), 
  2767 ;;  from            1    0[COMMON] PTR const unsigned char 
  2768 ;;		 -> __fltoee@data(4), __fttoee@data(4), __otoee@data(8), __ltoee@data(4), 
  2769 ;;		 -> __mtoee@data(3), __itoee@data(2), __ctoee@data(1), 
  2770 ;;  size            1    1[COMMON] unsigned char 
  2771 ;; Auto vars:     Size  Location     Type
  2772 ;;  to              1    5[COMMON] PTR eeprom unsigned char
  2773 ;;		 -> ee(220), 
  2774 ;;  ptr             1    4[COMMON] PTR const unsigned char 
  2775 ;;		 -> __fltoee@data(4), __fttoee@data(4), __otoee@data(8), __ltoee@data(4), 
  2776 ;;		 -> __mtoee@data(3), __itoee@data(2), __ctoee@data(1), 
  2777 ;; Return value:  Size  Location     Type
  2778 ;;                  1    wreg      void 
  2779 ;; Registers used:
  2780 ;;		wreg, fsr1l, fsr1h, status,2, status,0
  2781 ;; Tracked objects:
  2782 ;;		On entry : 0/0
  2783 ;;		On exit  : 0/0
  2784 ;;		Unchanged: 0/0
  2785 ;; Data sizes:     COMMON   BANK0   BANK1   BANK2   BANK3   BANK4
  2786 ;;      Params:         2       0       0       0       0       0
  2787 ;;      Locals:         2       0       0       0       0       0
  2788 ;;      Temps:          2       0       0       0       0       0
  2789 ;;      Totals:         6       0       0       0       0       0
  2790 ;;Total ram usage:        6 bytes
  2791 ;; Hardware stack levels used: 1
  2792 ;; This function calls:
  2793 ;;		Nothing
  2794 ;; This function is called by:
  2795 ;;		___ctoee
  2796 ;; This function uses a non-reentrant model
  2797 ;;
  2798                           
  2799     057B                     ___memcpyee:	
  2800                           ;psect for function ___memcpyee
  2801                           
  2802                           
  2803                           ;incstack = 0
  2804                           ; Regs used in ___memcpyee: [wreg+fsr1l+fsr1h+status,2+status,0]
  2805                           ;___memcpyee@to stored from wreg
  2806     057B  00F5               	movwf	___memcpyee@to
  2807     057C                     l1433:
  2808                           
  2809                           ;C:\Program Files\Microchip\xc8\v2.46\pic\sources\c99\pic\__eeprom.c: 39: __memcpyee(__e
      +                          eprom unsigned char * to, const unsigned char *from, unsigned char size);C:\Program File
      +                          s\Microchip\xc8\v2.46\pic\sources\c99\pic\__eeprom.c: 40: {;C:\Program Files\Microchip\x
      +                          c8\v2.46\pic\sources\c99\pic\__eeprom.c: 41:  const unsigned char *ptr =from;
  2810     057C  0870               	movf	___memcpyee@from,w
  2811     057D  00F4               	movwf	___memcpyee@ptr
  2812     057E                     l340:	
  2813                           ;C:\Program Files\Microchip\xc8\v2.46\pic\sources\c99\pic\__eeprom.c: 43:  while (EECON1
      +                          bits.WR) continue;
  2814                           
  2815     057E  0023               	movlb	3	; select bank3
  2816     057F  1895               	btfsc	21,1	;volsfr
  2817     0580  2D82               	goto	u581
  2818     0581  2D83               	goto	u580
  2819     0582                     u581:
  2820     0582  2D7E               	goto	l340
  2821     0583                     u580:
  2822     0583                     l1435:
  2823                           
  2824                           ;C:\Program Files\Microchip\xc8\v2.46\pic\sources\c99\pic\__eeprom.c: 44:  EEADR = (unsi
      +                          gned char)to - 1U;
  2825     0583  0875               	movf	___memcpyee@to,w
  2826     0584  3EFF               	addlw	255
  2827     0585  00F2               	movwf	??___memcpyee
  2828     0586  30FF               	movlw	255
  2829     0587  1803               	skipnc
  2830     0588  3000               	movlw	0
  2831     0589  00F3               	movwf	??___memcpyee+1
  2832     058A  0872               	movf	??___memcpyee,w
  2833     058B  0091               	movwf	17	;volatile
  2834     058C  0873               	movf	??___memcpyee+1,w
  2835     058D  0092               	movwf	18	;volatile
  2836     058E                     l1437:
  2837                           
  2838                           ;C:\Program Files\Microchip\xc8\v2.46\pic\sources\c99\pic\__eeprom.c: 46:  EECON1 &= 0x7
      +                          F;
  2839     058E  307F               	movlw	127
  2840     058F  00F2               	movwf	??___memcpyee
  2841     0590  0872               	movf	??___memcpyee,w
  2842     0591  0595               	andwf	21,f	;volsfr
  2843                           
  2844                           ;C:\Program Files\Microchip\xc8\v2.46\pic\sources\c99\pic\__eeprom.c: 48:  while(size--)
      +                           {
  2845     0592  2DBB               	goto	l1461
  2846     0593                     l345:	
  2847                           ;C:\Program Files\Microchip\xc8\v2.46\pic\sources\c99\pic\__eeprom.c: 51:   }
  2848                           
  2849                           
  2850                           ;C:\Program Files\Microchip\xc8\v2.46\pic\sources\c99\pic\__eeprom.c: 49:   while (EECON
      +                          1bits.WR) {
  2851     0593  0023               	movlb	3	; select bank3
  2852     0594  1895               	btfsc	21,1	;volsfr
  2853     0595  2D97               	goto	u591
  2854     0596  2D98               	goto	u590
  2855     0597                     u591:
  2856     0597  2D93               	goto	l345
  2857     0598                     u590:
  2858     0598                     l1439:
  2859                           
  2860                           ;C:\Program Files\Microchip\xc8\v2.46\pic\sources\c99\pic\__eeprom.c: 52:   EEDATA = *pt
      +                          r++;
  2861     0598  0874               	movf	___memcpyee@ptr,w
  2862     0599  0086               	movwf	6
  2863     059A  0187               	clrf	7
  2864     059B  0801               	movf	1,w
  2865     059C  0093               	movwf	19	;volatile
  2866     059D                     l1441:
  2867     059D  3001               	movlw	1
  2868     059E  00F2               	movwf	??___memcpyee
  2869     059F  0872               	movf	??___memcpyee,w
  2870     05A0  07F4               	addwf	___memcpyee@ptr,f
  2871     05A1                     l1443:
  2872                           
  2873                           ;C:\Program Files\Microchip\xc8\v2.46\pic\sources\c99\pic\__eeprom.c: 53:   ++EEADR;
  2874     05A1  3001               	movlw	1
  2875     05A2  0791               	addwf	17,f	;volatile
  2876     05A3  3000               	movlw	0
  2877     05A4  3D92               	addwfc	18,f	;volatile
  2878     05A5                     l1445:
  2879                           
  2880                           ;C:\Program Files\Microchip\xc8\v2.46\pic\sources\c99\pic\__eeprom.c: 54:   STATUSbits.C
      +                          ARRY = 0;
  2881     05A5  0020               	movlb	0	; select bank0
  2882     05A6  1003               	bcf	3,0	;volatile
  2883     05A7                     l1447:
  2884                           
  2885                           ;C:\Program Files\Microchip\xc8\v2.46\pic\sources\c99\pic\__eeprom.c: 55:   if (INTCONbi
      +                          ts.GIE) {
  2886     05A7  1F8B               	btfss	11,7	;volatile
  2887     05A8  2DAA               	goto	u601
  2888     05A9  2DAB               	goto	u600
  2889     05AA                     u601:
  2890     05AA  2DAC               	goto	l348
  2891     05AB                     u600:
  2892     05AB                     l1449:
  2893                           
  2894                           ;C:\Program Files\Microchip\xc8\v2.46\pic\sources\c99\pic\__eeprom.c: 56:    STATUSbits.
      +                          CARRY = 1;
  2895     05AB  1403               	bsf	3,0	;volatile
  2896     05AC                     l348:	
  2897                           ;C:\Program Files\Microchip\xc8\v2.46\pic\sources\c99\pic\__eeprom.c: 57:   }
  2898                           
  2899                           
  2900                           ;C:\Program Files\Microchip\xc8\v2.46\pic\sources\c99\pic\__eeprom.c: 58:   INTCONbits.G
      +                          IE = 0;
  2901     05AC  138B               	bcf	11,7	;volatile
  2902                           
  2903                           ;C:\Program Files\Microchip\xc8\v2.46\pic\sources\c99\pic\__eeprom.c: 59:   EECON1bits.W
      +                          REN = 1;
  2904     05AD  0023               	movlb	3	; select bank3
  2905     05AE  1515               	bsf	21,2	;volsfr
  2906     05AF                     l1451:
  2907                           
  2908                           ;C:\Program Files\Microchip\xc8\v2.46\pic\sources\c99\pic\__eeprom.c: 60:   EECON2 = 0x5
      +                          5;
  2909     05AF  3055               	movlw	85
  2910     05B0  0096               	movwf	22	;volsfr
  2911                           
  2912                           ;C:\Program Files\Microchip\xc8\v2.46\pic\sources\c99\pic\__eeprom.c: 61:   EECON2 = 0xA
      +                          A;
  2913     05B1  30AA               	movlw	170
  2914     05B2  0096               	movwf	22	;volsfr
  2915     05B3                     l1453:
  2916                           
  2917                           ;C:\Program Files\Microchip\xc8\v2.46\pic\sources\c99\pic\__eeprom.c: 62:   EECON1bits.W
      +                          R = 1;
  2918     05B3  1495               	bsf	21,1	;volsfr
  2919     05B4                     l1455:
  2920                           
  2921                           ;C:\Program Files\Microchip\xc8\v2.46\pic\sources\c99\pic\__eeprom.c: 63:   EECON1bits.W
      +                          REN = 0;
  2922     05B4  1115               	bcf	21,2	;volsfr
  2923     05B5                     l1457:
  2924                           
  2925                           ;C:\Program Files\Microchip\xc8\v2.46\pic\sources\c99\pic\__eeprom.c: 64:   if (STATUSbi
      +                          ts.CARRY) {
  2926     05B5  0020               	movlb	0	; select bank0
  2927     05B6  1C03               	btfss	3,0	;volatile
  2928     05B7  2DB9               	goto	u611
  2929     05B8  2DBA               	goto	u610
  2930     05B9                     u611:
  2931     05B9  2DBB               	goto	l1461
  2932     05BA                     u610:
  2933     05BA                     l1459:
  2934                           
  2935                           ;C:\Program Files\Microchip\xc8\v2.46\pic\sources\c99\pic\__eeprom.c: 65:    INTCONbits.
      +                          GIE = 1;
  2936     05BA  178B               	bsf	11,7	;volatile
  2937     05BB                     l1461:
  2938                           
  2939                           ;C:\Program Files\Microchip\xc8\v2.46\pic\sources\c99\pic\__eeprom.c: 48:  while(size--)
      +                           {
  2940     05BB  3001               	movlw	1
  2941     05BC  02F1               	subwf	___memcpyee@size,f
  2942     05BD  0A71               	incf	___memcpyee@size,w
  2943     05BE  1D03               	btfss	3,2
  2944     05BF  2DC1               	goto	u621
  2945     05C0  2DC2               	goto	u620
  2946     05C1                     u621:
  2947     05C1  2D93               	goto	l345
  2948     05C2                     u620:
  2949     05C2                     l351:
  2950     05C2  0008               	return
  2951     05C3                     __end_of___memcpyee:
  2952                           
  2953                           	psect	text6
  2954     0438                     __ptext6:	
  2955 ;; *************** function _EUSART_is_rx_ready *****************
  2956 ;; Defined at:
  2957 ;;		line 99 in file "mcc_generated_files/eusart.c"
  2958 ;; Parameters:    Size  Location     Type
  2959 ;;		None
  2960 ;; Auto vars:     Size  Location     Type
  2961 ;;		None
  2962 ;; Return value:  Size  Location     Type
  2963 ;;                  1    wreg      _Bool 
  2964 ;; Registers used:
  2965 ;;		wreg, status,2, status,0
  2966 ;; Tracked objects:
  2967 ;;		On entry : 0/0
  2968 ;;		On exit  : 0/0
  2969 ;;		Unchanged: 0/0
  2970 ;; Data sizes:     COMMON   BANK0   BANK1   BANK2   BANK3   BANK4
  2971 ;;      Params:         0       0       0       0       0       0
  2972 ;;      Locals:         0       0       0       0       0       0
  2973 ;;      Temps:          0       0       0       0       0       0
  2974 ;;      Totals:         0       0       0       0       0       0
  2975 ;;Total ram usage:        0 bytes
  2976 ;; Hardware stack levels used: 1
  2977 ;; This function calls:
  2978 ;;		Nothing
  2979 ;; This function is called by:
  2980 ;;		_recebeGuardaNome
  2981 ;;		_main
  2982 ;; This function uses a non-reentrant model
  2983 ;;
  2984                           
  2985     0438                     _EUSART_is_rx_ready:	
  2986                           ;psect for function _EUSART_is_rx_ready
  2987                           
  2988     0438                     l1469:	
  2989                           ;incstack = 0
  2990                           ; Regs used in _EUSART_is_rx_ready: [wreg+status,2+status,0]
  2991                           
  2992                           
  2993                           ;mcc_generated_files/eusart.c: 101:     return (_Bool)(PIR1bits.RCIF);
  2994     0438  0020               	movlb	0	; select bank0
  2995     0439  0E11               	swapf	17,w	;volatile
  2996     043A  0C89               	rrf	9,f
  2997     043B  3901               	andlw	1
  2998     043C                     l101:
  2999     043C  0008               	return
  3000     043D                     __end_of_EUSART_is_rx_ready:
  3001                           
  3002                           	psect	text7
  3003     048D                     __ptext7:	
  3004 ;; *************** function _EUSART_Read *****************
  3005 ;; Defined at:
  3006 ;;		line 113 in file "mcc_generated_files/eusart.c"
  3007 ;; Parameters:    Size  Location     Type
  3008 ;;		None
  3009 ;; Auto vars:     Size  Location     Type
  3010 ;;		None
  3011 ;; Return value:  Size  Location     Type
  3012 ;;                  1    wreg      unsigned char 
  3013 ;; Registers used:
  3014 ;;		wreg, status,2
  3015 ;; Tracked objects:
  3016 ;;		On entry : 0/0
  3017 ;;		On exit  : 0/0
  3018 ;;		Unchanged: 0/0
  3019 ;; Data sizes:     COMMON   BANK0   BANK1   BANK2   BANK3   BANK4
  3020 ;;      Params:         0       0       0       0       0       0
  3021 ;;      Locals:         0       0       0       0       0       0
  3022 ;;      Temps:          0       0       0       0       0       0
  3023 ;;      Totals:         0       0       0       0       0       0
  3024 ;;Total ram usage:        0 bytes
  3025 ;; Hardware stack levels used: 1
  3026 ;; This function calls:
  3027 ;;		Nothing
  3028 ;; This function is called by:
  3029 ;;		_recebeGuardaNome
  3030 ;;		_main
  3031 ;; This function uses a non-reentrant model
  3032 ;;
  3033                           
  3034     048D                     _EUSART_Read:	
  3035                           ;psect for function _EUSART_Read
  3036                           
  3037     048D                     l1473:	
  3038                           ;incstack = 0
  3039                           ; Regs used in _EUSART_Read: [wreg+status,2]
  3040                           
  3041     048D                     l110:	
  3042                           ;mcc_generated_files/eusart.c: 116:     {;mcc_generated_files/eusart.c: 117:     }
  3043                           
  3044                           
  3045                           ;mcc_generated_files/eusart.c: 115:     while(!PIR1bits.RCIF)
  3046     048D  0020               	movlb	0	; select bank0
  3047     048E  1E91               	btfss	17,5	;volatile
  3048     048F  2C91               	goto	u631
  3049     0490  2C92               	goto	u630
  3050     0491                     u631:
  3051     0491  2C8D               	goto	l110
  3052     0492                     u630:
  3053     0492                     l1475:
  3054                           
  3055                           ;mcc_generated_files/eusart.c: 119:     eusartRxLastError.status = 0;
  3056     0492  01BE               	clrf	_eusartRxLastError	;volatile
  3057     0493                     l1477:
  3058                           
  3059                           ;mcc_generated_files/eusart.c: 121:     if(1 == RCSTAbits.OERR)
  3060     0493  0023               	movlb	3	; select bank3
  3061     0494  1C9D               	btfss	29,1	;volatile
  3062     0495  2C97               	goto	u641
  3063     0496  2C98               	goto	u640
  3064     0497                     u641:
  3065     0497  2C9A               	goto	l1481
  3066     0498                     u640:
  3067     0498                     l1479:
  3068                           
  3069                           ;mcc_generated_files/eusart.c: 122:     {;mcc_generated_files/eusart.c: 125:         RCS
      +                          TAbits.CREN = 0;
  3070     0498  121D               	bcf	29,4	;volatile
  3071                           
  3072                           ;mcc_generated_files/eusart.c: 126:         RCSTAbits.CREN = 1;
  3073     0499  161D               	bsf	29,4	;volatile
  3074     049A                     l1481:
  3075                           
  3076                           ;mcc_generated_files/eusart.c: 129:     return RCREG;
  3077     049A  0819               	movf	25,w	;volatile
  3078     049B                     l114:
  3079     049B  0008               	return
  3080     049C                     __end_of_EUSART_Read:
  3081                           
  3082                           	psect	text8
  3083     0626                     __ptext8:	
  3084 ;; *************** function _enviaNomes *****************
  3085 ;; Defined at:
  3086 ;;		line 213 in file "main.c"
  3087 ;; Parameters:    Size  Location     Type
  3088 ;;		None
  3089 ;; Auto vars:     Size  Location     Type
  3090 ;;  j               2    2[BANK0 ] int 
  3091 ;;  j               2    0[BANK0 ] int 
  3092 ;;  i               2    4[BANK0 ] int 
  3093 ;; Return value:  Size  Location     Type
  3094 ;;                  1    wreg      void 
  3095 ;; Registers used:
  3096 ;;		wreg, fsr1l, fsr1h, status,2, status,0, pclath, cstack
  3097 ;; Tracked objects:
  3098 ;;		On entry : 0/0
  3099 ;;		On exit  : 0/0
  3100 ;;		Unchanged: 0/0
  3101 ;; Data sizes:     COMMON   BANK0   BANK1   BANK2   BANK3   BANK4
  3102 ;;      Params:         0       0       0       0       0       0
  3103 ;;      Locals:         0       6       0       0       0       0
  3104 ;;      Temps:          1       0       0       0       0       0
  3105 ;;      Totals:         1       6       0       0       0       0
  3106 ;;Total ram usage:        7 bytes
  3107 ;; Hardware stack levels used: 1
  3108 ;; Hardware stack levels required when called: 2
  3109 ;; This function calls:
  3110 ;;		_EUSART_Write
  3111 ;;		___bmul
  3112 ;;		___eetoc
  3113 ;; This function is called by:
  3114 ;;		_analisaRx
  3115 ;; This function uses a non-reentrant model
  3116 ;;
  3117                           
  3118     0626                     _enviaNomes:	
  3119                           ;psect for function _enviaNomes
  3120                           
  3121     0626                     l1555:	
  3122                           ;incstack = 0
  3123                           ; Regs used in _enviaNomes: [wreg+fsr1l+fsr1h+status,2+status,0+pclath+cstack]
  3124                           
  3125                           
  3126                           ;main.c: 214:     for(int i = 0; i<=10; i++){
  3127     0626  0020               	movlb	0	; select bank0
  3128     0627  01C3               	clrf	enviaNomes@i
  3129     0628  01C4               	clrf	enviaNomes@i+1
  3130     0629                     l1561:
  3131                           
  3132                           ;main.c: 215:         if(ee[i].estado == 2){
  3133     0629  3016               	movlw	22
  3134     062A  00F0               	movwf	___bmul@multiplicand
  3135     062B  0020               	movlb	0	; select bank0
  3136     062C  0843               	movf	enviaNomes@i,w
  3137     062D  3184  249C  3186   	fcall	___bmul
  3138     0630  3E00               	addlw	low _ee
  3139     0631  3184  2469  3186   	fcall	___eetoc
  3140     0634  3A02               	xorlw	2
  3141     0635  1D03               	skipz
  3142     0636  2E38               	goto	u691
  3143     0637  2E39               	goto	u690
  3144     0638                     u691:
  3145     0638  2E7E               	goto	l1577
  3146     0639                     u690:
  3147     0639                     l1563:
  3148                           
  3149                           ;main.c: 216:             EUSART_Write(0x20);
  3150     0639  3020               	movlw	32
  3151     063A  3184  2455  3186   	fcall	_EUSART_Write
  3152                           
  3153                           ;main.c: 217:             EUSART_Write(0x58);
  3154     063D  3058               	movlw	88
  3155     063E  3184  2455  3186   	fcall	_EUSART_Write
  3156     0641                     l1565:
  3157                           
  3158                           ;main.c: 218:             for(int j = 0; j<20 && ee[i].name[j] != 0;j++){
  3159     0641  0020               	movlb	0	; select bank0
  3160     0642  01BF               	clrf	enviaNomes@j
  3161     0643  01C0               	clrf	enviaNomes@j+1
  3162     0644  2E5A               	goto	l1571
  3163     0645                     l1567:
  3164                           
  3165                           ;main.c: 219:                 EUSART_Write(ee[i].name[j]);
  3166     0645  3016               	movlw	22
  3167     0646  00F0               	movwf	___bmul@multiplicand
  3168     0647  0020               	movlb	0	; select bank0
  3169     0648  0843               	movf	enviaNomes@i,w
  3170     0649  3184  249C  3186   	fcall	___bmul
  3171     064C  3E01               	addlw	low (_ee+1)
  3172     064D  0020               	movlb	0	; select bank0
  3173     064E  073F               	addwf	enviaNomes@j,w
  3174     064F  3184  2469  3186   	fcall	___eetoc
  3175     0652  3184  2455  3186   	fcall	_EUSART_Write
  3176     0655                     l1569:
  3177                           
  3178                           ;main.c: 220:             }
  3179     0655  3001               	movlw	1
  3180     0656  0020               	movlb	0	; select bank0
  3181     0657  07BF               	addwf	enviaNomes@j,f
  3182     0658  3000               	movlw	0
  3183     0659  3DC0               	addwfc	enviaNomes@j+1,f
  3184     065A                     l1571:
  3185     065A  0840               	movf	enviaNomes@j+1,w
  3186     065B  3A80               	xorlw	128
  3187     065C  00F8               	movwf	??_enviaNomes
  3188     065D  3080               	movlw	128
  3189     065E  0278               	subwf	??_enviaNomes,w
  3190     065F  1D03               	skipz
  3191     0660  2E63               	goto	u705
  3192     0661  3014               	movlw	20
  3193     0662  023F               	subwf	enviaNomes@j,w
  3194     0663                     u705:
  3195     0663  1803               	skipnc
  3196     0664  2E66               	goto	u701
  3197     0665  2E67               	goto	u700
  3198     0666                     u701:
  3199     0666  2E79               	goto	l1575
  3200     0667                     u700:
  3201     0667                     l1573:
  3202     0667  3016               	movlw	22
  3203     0668  00F0               	movwf	___bmul@multiplicand
  3204     0669  0020               	movlb	0	; select bank0
  3205     066A  0843               	movf	enviaNomes@i,w
  3206     066B  3184  249C  3186   	fcall	___bmul
  3207     066E  3E01               	addlw	low (_ee+1)
  3208     066F  0020               	movlb	0	; select bank0
  3209     0670  073F               	addwf	enviaNomes@j,w
  3210     0671  3184  2469  3186   	fcall	___eetoc
  3211     0674  3A00               	xorlw	0
  3212     0675  1D03               	skipz
  3213     0676  2E78               	goto	u711
  3214     0677  2E79               	goto	u710
  3215     0678                     u711:
  3216     0678  2E45               	goto	l1567
  3217     0679                     u710:
  3218     0679                     l1575:
  3219                           
  3220                           ;main.c: 221:             EUSART_Write(0x0D);
  3221     0679  300D               	movlw	13
  3222     067A  3184  2455  3186   	fcall	_EUSART_Write
  3223                           
  3224                           ;main.c: 222:         }
  3225     067D  2ED2               	goto	l1593
  3226     067E                     l1577:
  3227     067E  3016               	movlw	22
  3228     067F  00F0               	movwf	___bmul@multiplicand
  3229     0680  0020               	movlb	0	; select bank0
  3230     0681  0843               	movf	enviaNomes@i,w
  3231     0682  3184  249C  3186   	fcall	___bmul
  3232     0685  3E00               	addlw	low _ee
  3233     0686  3184  2469  3186   	fcall	___eetoc
  3234     0689  3A01               	xorlw	1
  3235     068A  1D03               	skipz
  3236     068B  2E8D               	goto	u721
  3237     068C  2E8E               	goto	u720
  3238     068D                     u721:
  3239     068D  2ED2               	goto	l1593
  3240     068E                     u720:
  3241     068E                     l1579:
  3242                           
  3243                           ;main.c: 224:             EUSART_Write(0x20);
  3244     068E  3020               	movlw	32
  3245     068F  3184  2455  3186   	fcall	_EUSART_Write
  3246                           
  3247                           ;main.c: 225:             EUSART_Write(0x20);
  3248     0692  3020               	movlw	32
  3249     0693  3184  2455  3186   	fcall	_EUSART_Write
  3250     0696                     l1581:
  3251                           
  3252                           ;main.c: 226:             for(int j = 0; j<20 && ee[i].name[j] != 0;j++){
  3253     0696  0020               	movlb	0	; select bank0
  3254     0697  01C1               	clrf	enviaNomes@j_412
  3255     0698  01C2               	clrf	enviaNomes@j_412+1
  3256     0699  2EAF               	goto	l1587
  3257     069A                     l1583:
  3258                           
  3259                           ;main.c: 227:                 EUSART_Write(ee[i].name[j]);
  3260     069A  3016               	movlw	22
  3261     069B  00F0               	movwf	___bmul@multiplicand
  3262     069C  0020               	movlb	0	; select bank0
  3263     069D  0843               	movf	enviaNomes@i,w
  3264     069E  3184  249C  3186   	fcall	___bmul
  3265     06A1  3E01               	addlw	low (_ee+1)
  3266     06A2  0020               	movlb	0	; select bank0
  3267     06A3  0741               	addwf	enviaNomes@j_412,w
  3268     06A4  3184  2469  3186   	fcall	___eetoc
  3269     06A7  3184  2455  3186   	fcall	_EUSART_Write
  3270     06AA                     l1585:
  3271                           
  3272                           ;main.c: 228:             }
  3273     06AA  3001               	movlw	1
  3274     06AB  0020               	movlb	0	; select bank0
  3275     06AC  07C1               	addwf	enviaNomes@j_412,f
  3276     06AD  3000               	movlw	0
  3277     06AE  3DC2               	addwfc	enviaNomes@j_412+1,f
  3278     06AF                     l1587:
  3279     06AF  0842               	movf	enviaNomes@j_412+1,w
  3280     06B0  3A80               	xorlw	128
  3281     06B1  00F8               	movwf	??_enviaNomes
  3282     06B2  3080               	movlw	128
  3283     06B3  0278               	subwf	??_enviaNomes,w
  3284     06B4  1D03               	skipz
  3285     06B5  2EB8               	goto	u735
  3286     06B6  3014               	movlw	20
  3287     06B7  0241               	subwf	enviaNomes@j_412,w
  3288     06B8                     u735:
  3289     06B8  1803               	skipnc
  3290     06B9  2EBB               	goto	u731
  3291     06BA  2EBC               	goto	u730
  3292     06BB                     u731:
  3293     06BB  2ECE               	goto	l1591
  3294     06BC                     u730:
  3295     06BC                     l1589:
  3296     06BC  3016               	movlw	22
  3297     06BD  00F0               	movwf	___bmul@multiplicand
  3298     06BE  0020               	movlb	0	; select bank0
  3299     06BF  0843               	movf	enviaNomes@i,w
  3300     06C0  3184  249C  3186   	fcall	___bmul
  3301     06C3  3E01               	addlw	low (_ee+1)
  3302     06C4  0020               	movlb	0	; select bank0
  3303     06C5  0741               	addwf	enviaNomes@j_412,w
  3304     06C6  3184  2469  3186   	fcall	___eetoc
  3305     06C9  3A00               	xorlw	0
  3306     06CA  1D03               	skipz
  3307     06CB  2ECD               	goto	u741
  3308     06CC  2ECE               	goto	u740
  3309     06CD                     u741:
  3310     06CD  2E9A               	goto	l1583
  3311     06CE                     u740:
  3312     06CE                     l1591:
  3313                           
  3314                           ;main.c: 229:             EUSART_Write(0x0D);
  3315     06CE  300D               	movlw	13
  3316     06CF  3184  2455  3186   	fcall	_EUSART_Write
  3317     06D2                     l1593:
  3318                           
  3319                           ;main.c: 231:     }
  3320     06D2  3001               	movlw	1
  3321     06D3  0020               	movlb	0	; select bank0
  3322     06D4  07C3               	addwf	enviaNomes@i,f
  3323     06D5  3000               	movlw	0
  3324     06D6  3DC4               	addwfc	enviaNomes@i+1,f
  3325     06D7                     l1595:
  3326     06D7  0844               	movf	enviaNomes@i+1,w
  3327     06D8  3A80               	xorlw	128
  3328     06D9  00F8               	movwf	??_enviaNomes
  3329     06DA  3080               	movlw	128
  3330     06DB  0278               	subwf	??_enviaNomes,w
  3331     06DC  1D03               	skipz
  3332     06DD  2EE0               	goto	u755
  3333     06DE  300B               	movlw	11
  3334     06DF  0243               	subwf	enviaNomes@i,w
  3335     06E0                     u755:
  3336     06E0  1C03               	skipc
  3337     06E1  2EE3               	goto	u751
  3338     06E2  2EE4               	goto	u750
  3339     06E3                     u751:
  3340     06E3  2E29               	goto	l1561
  3341     06E4                     u750:
  3342     06E4                     l254:
  3343     06E4  0008               	return
  3344     06E5                     __end_of_enviaNomes:
  3345                           
  3346                           	psect	text9
  3347     0469                     __ptext9:	
  3348 ;; *************** function ___eetoc *****************
  3349 ;; Defined at:
  3350 ;;		line 104 in file "C:\Program Files\Microchip\xc8\v2.46\pic\sources\c99\pic\__eeprom.c"
  3351 ;; Parameters:    Size  Location     Type
  3352 ;;  addr            1    wreg     PTR eeprom void 
  3353 ;;		 -> ee(220), 
  3354 ;; Auto vars:     Size  Location     Type
  3355 ;;  addr            1    6[COMMON] PTR eeprom void 
  3356 ;;		 -> ee(220), 
  3357 ;;  data            1    7[COMMON] unsigned char 
  3358 ;; Return value:  Size  Location     Type
  3359 ;;                  1    wreg      unsigned char 
  3360 ;; Registers used:
  3361 ;;		wreg, fsr1l, fsr1h, status,2, status,0, pclath, cstack
  3362 ;; Tracked objects:
  3363 ;;		On entry : 0/0
  3364 ;;		On exit  : 0/0
  3365 ;;		Unchanged: 0/0
  3366 ;; Data sizes:     COMMON   BANK0   BANK1   BANK2   BANK3   BANK4
  3367 ;;      Params:         0       0       0       0       0       0
  3368 ;;      Locals:         2       0       0       0       0       0
  3369 ;;      Temps:          0       0       0       0       0       0
  3370 ;;      Totals:         2       0       0       0       0       0
  3371 ;;Total ram usage:        2 bytes
  3372 ;; Hardware stack levels used: 1
  3373 ;; Hardware stack levels required when called: 1
  3374 ;; This function calls:
  3375 ;;		___eecpymem
  3376 ;; This function is called by:
  3377 ;;		_enviaNomes
  3378 ;;		_analisaRx
  3379 ;; This function uses a non-reentrant model
  3380 ;;
  3381                           
  3382     0469                     ___eetoc:	
  3383                           ;psect for function ___eetoc
  3384                           
  3385                           
  3386                           ;incstack = 0
  3387                           ; Regs used in ___eetoc: [wreg+fsr1l+fsr1h+status,2+status,0+pclath+cstack]
  3388                           ;___eetoc@addr stored from wreg
  3389     0469  00F6               	movwf	___eetoc@addr
  3390     046A                     l1495:
  3391                           
  3392                           ;C:\Program Files\Microchip\xc8\v2.46\pic\sources\c99\pic\__eeprom.c: 104: __eetoc(__eep
      +                          rom void *addr);C:\Program Files\Microchip\xc8\v2.46\pic\sources\c99\pic\__eeprom.c: 105
      +                          : {;C:\Program Files\Microchip\xc8\v2.46\pic\sources\c99\pic\__eeprom.c: 106:  unsigned 
      +                          char data;;C:\Program Files\Microchip\xc8\v2.46\pic\sources\c99\pic\__eeprom.c: 107:  __
      +                          eecpymem((unsigned char *) &data,addr,1);
  3393     046A  0876               	movf	___eetoc@addr,w
  3394     046B  00F0               	movwf	___eecpymem@from
  3395     046C  01F1               	clrf	___eecpymem@size
  3396     046D  0AF1               	incf	___eecpymem@size,f
  3397     046E  3077               	movlw	(low (___eetoc@data| 0))& (0+255)
  3398     046F  3185  2515  3184   	fcall	___eecpymem
  3399     0472                     l1497:
  3400                           
  3401                           ;C:\Program Files\Microchip\xc8\v2.46\pic\sources\c99\pic\__eeprom.c: 108:  return data;
  3402     0472  0877               	movf	___eetoc@data,w
  3403     0473                     l354:
  3404     0473  0008               	return
  3405     0474                     __end_of___eetoc:
  3406                           
  3407                           	psect	text10
  3408     0515                     __ptext10:	
  3409 ;; *************** function ___eecpymem *****************
  3410 ;; Defined at:
  3411 ;;		line 6 in file "C:\Program Files\Microchip\xc8\v2.46\pic\sources\c99\pic\__eeprom.c"
  3412 ;; Parameters:    Size  Location     Type
  3413 ;;  to              1    wreg     PTR volatile unsigned ch
  3414 ;;		 -> __eetofl@data(4), __eetoft@data(4), __eetoo@data(8), __eetol@data(4), 
  3415 ;;		 -> __eetom@data(3), __eetoi@data(2), __eetoc@data(1), 
  3416 ;;  from            1    0[COMMON] PTR eeprom unsigned char
  3417 ;;		 -> ee(220), 
  3418 ;;  size            1    1[COMMON] unsigned char 
  3419 ;; Auto vars:     Size  Location     Type
  3420 ;;  to              1    5[COMMON] PTR volatile unsigned ch
  3421 ;;		 -> __eetofl@data(4), __eetoft@data(4), __eetoo@data(8), __eetol@data(4), 
  3422 ;;		 -> __eetom@data(3), __eetoi@data(2), __eetoc@data(1), 
  3423 ;;  cp              1    4[COMMON] PTR volatile unsigned ch
  3424 ;;		 -> __eetofl@data(4), __eetoft@data(4), __eetoo@data(8), __eetol@data(4), 
  3425 ;;		 -> __eetom@data(3), __eetoi@data(2), __eetoc@data(1), 
  3426 ;; Return value:  Size  Location     Type
  3427 ;;                  1    wreg      void 
  3428 ;; Registers used:
  3429 ;;		wreg, fsr1l, fsr1h, status,2, status,0
  3430 ;; Tracked objects:
  3431 ;;		On entry : 0/0
  3432 ;;		On exit  : 0/0
  3433 ;;		Unchanged: 0/0
  3434 ;; Data sizes:     COMMON   BANK0   BANK1   BANK2   BANK3   BANK4
  3435 ;;      Params:         2       0       0       0       0       0
  3436 ;;      Locals:         2       0       0       0       0       0
  3437 ;;      Temps:          2       0       0       0       0       0
  3438 ;;      Totals:         6       0       0       0       0       0
  3439 ;;Total ram usage:        6 bytes
  3440 ;; Hardware stack levels used: 1
  3441 ;; This function calls:
  3442 ;;		Nothing
  3443 ;; This function is called by:
  3444 ;;		___eetoc
  3445 ;; This function uses a non-reentrant model
  3446 ;;
  3447                           
  3448     0515                     ___eecpymem:	
  3449                           ;psect for function ___eecpymem
  3450                           
  3451                           
  3452                           ;incstack = 0
  3453                           ; Regs used in ___eecpymem: [wreg+fsr1l+fsr1h+status,2+status,0]
  3454                           ;___eecpymem@to stored from wreg
  3455     0515  00F5               	movwf	___eecpymem@to
  3456     0516                     l1417:
  3457                           
  3458                           ;C:\Program Files\Microchip\xc8\v2.46\pic\sources\c99\pic\__eeprom.c: 6: __eecpymem(vola
      +                          tile unsigned char *to, __eeprom unsigned char * from, unsigned char size);C:\Program Fi
      +                          les\Microchip\xc8\v2.46\pic\sources\c99\pic\__eeprom.c: 6: };C:\Program Files\Microchip\
      +                          xc8\v2.46\pic\sources\c99\pic\__eeprom.c: 6: ;C:\Program Files\Microchip\xc8\v2.46\pic\s
      +                          ources\c99\pic\__eeprom.c: 6: ;C:\Program Files\Microchip\xc8\v2.46\pic\sources\c99\pic\
      +                          __eeprom.c: 6: };C:\Program Files\Microchip\xc8\v2.46\pic\sources\c99\pic\__eeprom.c: 7:
      +                           {
  3459     0516  0875               	movf	___eecpymem@to,w
  3460     0517  00F4               	movwf	___eecpymem@cp
  3461     0518                     l328:	
  3462                           ;C:\Program Files\Microchip\xc8\v2.46\pic\sources\c99\pic\__eeprom.c: 10:  while (EECON1
      +                          bits.WR) continue;;C:\Program Files\Microchip\xc8\v2.46\pic\sources\c99\pic\__eeprom.c: 
      +                          10:  __memcpyee(addr,(unsigned char *) &data,2);;C:\Program Files\Microchip\xc8\v2.46\pi
      +                          c\sources\c99\pic\__eeprom.c: 10: {
  3463                           
  3464     0518  0023               	movlb	3	; select bank3
  3465     0519  1895               	btfsc	21,1	;volsfr
  3466     051A  2D1C               	goto	u551
  3467     051B  2D1D               	goto	u550
  3468     051C                     u551:
  3469     051C  2D18               	goto	l328
  3470     051D                     u550:
  3471     051D                     l1419:
  3472                           
  3473                           ;C:\Program Files\Microchip\xc8\v2.46\pic\sources\c99\pic\__eeprom.c: 11:  EEADR = (unsi
      +                          gned char)from;;C:\Program Files\Microchip\xc8\v2.46\pic\sources\c99\pic\__eeprom.c: 11:
      +                            return data;;C:\Program Files\Microchip\xc8\v2.46\pic\sources\c99\pic\__eeprom.c: 11: 
      +                           double data;
  3474     051D  0870               	movf	___eecpymem@from,w
  3475     051E  00F2               	movwf	??___eecpymem
  3476     051F  01F3               	clrf	??___eecpymem+1
  3477     0520  0872               	movf	??___eecpymem,w
  3478     0521  0091               	movwf	17	;volatile
  3479     0522  0873               	movf	??___eecpymem+1,w
  3480     0523  0092               	movwf	18	;volatile
  3481                           
  3482                           ;C:\Program Files\Microchip\xc8\v2.46\pic\sources\c99\pic\__eeprom.c: 12:  while(size--)
      +                           {;C:\Program Files\Microchip\xc8\v2.46\pic\sources\c99\pic\__eeprom.c: 12: };C:\Program
      +                           Files\Microchip\xc8\v2.46\pic\sources\c99\pic\__eeprom.c: 12:  __eecpymem((unsigned cha
      +                          r *) &data,addr,4);
  3483     0524  2D3B               	goto	l1431
  3484     0525                     l333:
  3485     0525  1895               	btfsc	21,1	;volsfr
  3486     0526  2D28               	goto	u561
  3487     0527  2D29               	goto	u560
  3488     0528                     u561:
  3489     0528  2D25               	goto	l333
  3490     0529                     u560:
  3491     0529                     l1421:
  3492                           
  3493                           ;C:\Program Files\Microchip\xc8\v2.46\pic\sources\c99\pic\__eeprom.c: 15:   EECON1 &= 0x
      +                          7F;;C:\Program Files\Microchip\xc8\v2.46\pic\sources\c99\pic\__eeprom.c: 15: 
  3494     0529  307F               	movlw	127
  3495     052A  00F2               	movwf	??___eecpymem
  3496     052B  0872               	movf	??___eecpymem,w
  3497     052C  0595               	andwf	21,f	;volsfr
  3498     052D                     l1423:
  3499                           
  3500                           ;C:\Program Files\Microchip\xc8\v2.46\pic\sources\c99\pic\__eeprom.c: 17:   EECON1bits.R
      +                          D = 1;;C:\Program Files\Microchip\xc8\v2.46\pic\sources\c99\pic\__eeprom.c: 17: __fttoee
      +                          (__eeprom void *addr, float data)
  3501     052D  1415               	bsf	21,0	;volsfr
  3502     052E                     l1425:
  3503                           
  3504                           ;C:\Program Files\Microchip\xc8\v2.46\pic\sources\c99\pic\__eeprom.c: 18:   *cp++ = EEDA
      +                          TA;;C:\Program Files\Microchip\xc8\v2.46\pic\sources\c99\pic\__eeprom.c: 18: {
  3505     052E  0874               	movf	___eecpymem@cp,w
  3506     052F  0086               	movwf	6
  3507     0530  0187               	clrf	7
  3508     0531  0813               	movf	19,w	;volatile
  3509     0532  0081               	movwf	1
  3510     0533                     l1427:
  3511     0533  3001               	movlw	1
  3512     0534  00F2               	movwf	??___eecpymem
  3513     0535  0872               	movf	??___eecpymem,w
  3514     0536  07F4               	addwf	___eecpymem@cp,f
  3515     0537                     l1429:
  3516                           
  3517                           ;C:\Program Files\Microchip\xc8\v2.46\pic\sources\c99\pic\__eeprom.c: 19:   ++EEADR;;C:\
      +                          Program Files\Microchip\xc8\v2.46\pic\sources\c99\pic\__eeprom.c: 19:  __memcpyee(addr,(
      +                          unsigned char *) &data,3);
  3518     0537  3001               	movlw	1
  3519     0538  0791               	addwf	17,f	;volatile
  3520     0539  3000               	movlw	0
  3521     053A  3D92               	addwfc	18,f	;volatile
  3522     053B                     l1431:
  3523                           
  3524                           ;C:\Program Files\Microchip\xc8\v2.46\pic\sources\c99\pic\__eeprom.c: 12:  while(size--)
      +                           {;C:\Program Files\Microchip\xc8\v2.46\pic\sources\c99\pic\__eeprom.c: 12: };C:\Program
      +                           Files\Microchip\xc8\v2.46\pic\sources\c99\pic\__eeprom.c: 12:  __eecpymem((unsigned cha
      +                          r *) &data,addr,4);
  3525     053B  3001               	movlw	1
  3526     053C  02F1               	subwf	___eecpymem@size,f
  3527     053D  0A71               	incf	___eecpymem@size,w
  3528     053E  1D03               	btfss	3,2
  3529     053F  2D41               	goto	u571
  3530     0540  2D42               	goto	u570
  3531     0541                     u571:
  3532     0541  2D25               	goto	l333
  3533     0542                     u570:
  3534     0542                     l337:
  3535     0542  0008               	return
  3536     0543                     __end_of___eecpymem:
  3537                           
  3538                           	psect	text11
  3539     049C                     __ptext11:	
  3540 ;; *************** function ___bmul *****************
  3541 ;; Defined at:
  3542 ;;		line 4 in file "C:\Program Files\Microchip\xc8\v2.46\pic\sources\c99\common\Umul8.c"
  3543 ;; Parameters:    Size  Location     Type
  3544 ;;  multiplier      1    wreg     unsigned char 
  3545 ;;  multiplicand    1    0[COMMON] unsigned char 
  3546 ;; Auto vars:     Size  Location     Type
  3547 ;;  multiplier      1    3[COMMON] unsigned char 
  3548 ;;  product         1    2[COMMON] unsigned char 
  3549 ;; Return value:  Size  Location     Type
  3550 ;;                  1    wreg      unsigned char 
  3551 ;; Registers used:
  3552 ;;		wreg, status,2, status,0
  3553 ;; Tracked objects:
  3554 ;;		On entry : 0/0
  3555 ;;		On exit  : 0/0
  3556 ;;		Unchanged: 0/0
  3557 ;; Data sizes:     COMMON   BANK0   BANK1   BANK2   BANK3   BANK4
  3558 ;;      Params:         1       0       0       0       0       0
  3559 ;;      Locals:         2       0       0       0       0       0
  3560 ;;      Temps:          1       0       0       0       0       0
  3561 ;;      Totals:         4       0       0       0       0       0
  3562 ;;Total ram usage:        4 bytes
  3563 ;; Hardware stack levels used: 1
  3564 ;; This function calls:
  3565 ;;		Nothing
  3566 ;; This function is called by:
  3567 ;;		_enviaNomes
  3568 ;;		_recebeGuardaNome
  3569 ;;		_analisaRx
  3570 ;; This function uses a non-reentrant model
  3571 ;;
  3572                           
  3573     049C                     ___bmul:	
  3574                           ;psect for function ___bmul
  3575                           
  3576                           
  3577                           ;incstack = 0
  3578                           ; Regs used in ___bmul: [wreg+status,2+status,0]
  3579                           ;___bmul@multiplier stored from wreg
  3580     049C  00F3               	movwf	___bmul@multiplier
  3581     049D                     l1505:
  3582     049D  01F2               	clrf	___bmul@product
  3583     049E                     l1507:
  3584     049E  1C73               	btfss	___bmul@multiplier,0
  3585     049F  2CA1               	goto	u661
  3586     04A0  2CA2               	goto	u660
  3587     04A1                     u661:
  3588     04A1  2CA6               	goto	l1511
  3589     04A2                     u660:
  3590     04A2                     l1509:
  3591     04A2  0870               	movf	___bmul@multiplicand,w
  3592     04A3  00F1               	movwf	??___bmul
  3593     04A4  0871               	movf	??___bmul,w
  3594     04A5  07F2               	addwf	___bmul@product,f
  3595     04A6                     l1511:
  3596     04A6  1003               	clrc
  3597     04A7  0DF0               	rlf	___bmul@multiplicand,f
  3598     04A8                     l1513:
  3599     04A8  1003               	clrc
  3600     04A9  0CF3               	rrf	___bmul@multiplier,f
  3601     04AA  0873               	movf	___bmul@multiplier,w
  3602     04AB  1D03               	btfss	3,2
  3603     04AC  2CAE               	goto	u671
  3604     04AD  2CAF               	goto	u670
  3605     04AE                     u671:
  3606     04AE  2C9E               	goto	l1507
  3607     04AF                     u670:
  3608     04AF                     l1515:
  3609     04AF  0872               	movf	___bmul@product,w
  3610     04B0                     l487:
  3611     04B0  0008               	return
  3612     04B1                     __end_of___bmul:
  3613                           
  3614                           	psect	text12
  3615     0455                     __ptext12:	
  3616 ;; *************** function _EUSART_Write *****************
  3617 ;; Defined at:
  3618 ;;		line 132 in file "mcc_generated_files/eusart.c"
  3619 ;; Parameters:    Size  Location     Type
  3620 ;;  txData          1    wreg     unsigned char 
  3621 ;; Auto vars:     Size  Location     Type
  3622 ;;  txData          1    0[COMMON] unsigned char 
  3623 ;; Return value:  Size  Location     Type
  3624 ;;                  1    wreg      void 
  3625 ;; Registers used:
  3626 ;;		wreg
  3627 ;; Tracked objects:
  3628 ;;		On entry : 0/0
  3629 ;;		On exit  : 0/0
  3630 ;;		Unchanged: 0/0
  3631 ;; Data sizes:     COMMON   BANK0   BANK1   BANK2   BANK3   BANK4
  3632 ;;      Params:         0       0       0       0       0       0
  3633 ;;      Locals:         1       0       0       0       0       0
  3634 ;;      Temps:          0       0       0       0       0       0
  3635 ;;      Totals:         1       0       0       0       0       0
  3636 ;;Total ram usage:        1 bytes
  3637 ;; Hardware stack levels used: 1
  3638 ;; This function calls:
  3639 ;;		Nothing
  3640 ;; This function is called by:
  3641 ;;		_enviaMsg
  3642 ;;		_enviaNomes
  3643 ;;		_analisaRx
  3644 ;; This function uses a non-reentrant model
  3645 ;;
  3646                           
  3647     0455                     _EUSART_Write:	
  3648                           ;psect for function _EUSART_Write
  3649                           
  3650                           
  3651                           ;incstack = 0
  3652                           ; Regs used in _EUSART_Write: [wreg]
  3653                           ;EUSART_Write@txData stored from wreg
  3654     0455  00F0               	movwf	EUSART_Write@txData
  3655     0456                     l1413:
  3656     0456                     l117:	
  3657                           ;mcc_generated_files/eusart.c: 135:     {;mcc_generated_files/eusart.c: 136:     }
  3658                           
  3659                           
  3660                           ;mcc_generated_files/eusart.c: 134:     while(0 == PIR1bits.TXIF)
  3661     0456  0020               	movlb	0	; select bank0
  3662     0457  1E11               	btfss	17,4	;volatile
  3663     0458  2C5A               	goto	u541
  3664     0459  2C5B               	goto	u540
  3665     045A                     u541:
  3666     045A  2C56               	goto	l117
  3667     045B                     u540:
  3668     045B                     l1415:
  3669                           
  3670                           ;mcc_generated_files/eusart.c: 138:     TXREG = txData;
  3671     045B  0870               	movf	EUSART_Write@txData,w
  3672     045C  0023               	movlb	3	; select bank3
  3673     045D  009A               	movwf	26	;volatile
  3674     045E                     l120:
  3675     045E  0008               	return
  3676     045F                     __end_of_EUSART_Write:
  3677                           
  3678                           	psect	text13
  3679     0480                     __ptext13:	
  3680 ;; *************** function _SYSTEM_Initialize *****************
  3681 ;; Defined at:
  3682 ;;		line 50 in file "mcc_generated_files/mcc.c"
  3683 ;; Parameters:    Size  Location     Type
  3684 ;;		None
  3685 ;; Auto vars:     Size  Location     Type
  3686 ;;		None
  3687 ;; Return value:  Size  Location     Type
  3688 ;;                  1    wreg      void 
  3689 ;; Registers used:
  3690 ;;		wreg, status,2, status,0, pclath, cstack
  3691 ;; Tracked objects:
  3692 ;;		On entry : 0/0
  3693 ;;		On exit  : 0/0
  3694 ;;		Unchanged: 0/0
  3695 ;; Data sizes:     COMMON   BANK0   BANK1   BANK2   BANK3   BANK4
  3696 ;;      Params:         0       0       0       0       0       0
  3697 ;;      Locals:         0       0       0       0       0       0
  3698 ;;      Temps:          0       0       0       0       0       0
  3699 ;;      Totals:         0       0       0       0       0       0
  3700 ;;Total ram usage:        0 bytes
  3701 ;; Hardware stack levels used: 1
  3702 ;; Hardware stack levels required when called: 2
  3703 ;; This function calls:
  3704 ;;		_EUSART_Initialize
  3705 ;;		_OSCILLATOR_Initialize
  3706 ;;		_PIN_MANAGER_Initialize
  3707 ;;		_WDT_Initialize
  3708 ;; This function is called by:
  3709 ;;		_main
  3710 ;; This function uses a non-reentrant model
  3711 ;;
  3712                           
  3713     0480                     _SYSTEM_Initialize:	
  3714                           ;psect for function _SYSTEM_Initialize
  3715                           
  3716     0480                     l1637:	
  3717                           ;incstack = 0
  3718                           ; Regs used in _SYSTEM_Initialize: [wreg+status,2+status,0+pclath+cstack]
  3719                           
  3720                           
  3721                           ;mcc_generated_files/mcc.c: 53:     PIN_MANAGER_Initialize();
  3722     0480  3184  24B1  3184   	fcall	_PIN_MANAGER_Initialize
  3723                           
  3724                           ;mcc_generated_files/mcc.c: 54:     OSCILLATOR_Initialize();
  3725     0483  3184  2474  3184   	fcall	_OSCILLATOR_Initialize
  3726                           
  3727                           ;mcc_generated_files/mcc.c: 55:     WDT_Initialize();
  3728     0486  3184  2434  3184   	fcall	_WDT_Initialize
  3729                           
  3730                           ;mcc_generated_files/mcc.c: 56:     EUSART_Initialize();
  3731     0489  3184  24C9  3184   	fcall	_EUSART_Initialize
  3732     048C                     l159:
  3733     048C  0008               	return
  3734     048D                     __end_of_SYSTEM_Initialize:
  3735                           
  3736                           	psect	text14
  3737     0434                     __ptext14:	
  3738 ;; *************** function _WDT_Initialize *****************
  3739 ;; Defined at:
  3740 ;;		line 73 in file "mcc_generated_files/mcc.c"
  3741 ;; Parameters:    Size  Location     Type
  3742 ;;		None
  3743 ;; Auto vars:     Size  Location     Type
  3744 ;;		None
  3745 ;; Return value:  Size  Location     Type
  3746 ;;                  1    wreg      void 
  3747 ;; Registers used:
  3748 ;;		wreg
  3749 ;; Tracked objects:
  3750 ;;		On entry : 0/0
  3751 ;;		On exit  : 0/0
  3752 ;;		Unchanged: 0/0
  3753 ;; Data sizes:     COMMON   BANK0   BANK1   BANK2   BANK3   BANK4
  3754 ;;      Params:         0       0       0       0       0       0
  3755 ;;      Locals:         0       0       0       0       0       0
  3756 ;;      Temps:          0       0       0       0       0       0
  3757 ;;      Totals:         0       0       0       0       0       0
  3758 ;;Total ram usage:        0 bytes
  3759 ;; Hardware stack levels used: 1
  3760 ;; This function calls:
  3761 ;;		Nothing
  3762 ;; This function is called by:
  3763 ;;		_SYSTEM_Initialize
  3764 ;; This function uses a non-reentrant model
  3765 ;;
  3766                           
  3767     0434                     _WDT_Initialize:	
  3768                           ;psect for function _WDT_Initialize
  3769                           
  3770     0434                     l1553:	
  3771                           ;incstack = 0
  3772                           ; Regs used in _WDT_Initialize: [wreg]
  3773                           
  3774                           
  3775                           ;mcc_generated_files/mcc.c: 76:     WDTCON = 0x16;
  3776     0434  3016               	movlw	22
  3777     0435  0021               	movlb	1	; select bank1
  3778     0436  0097               	movwf	23	;volatile
  3779     0437                     l168:
  3780     0437  0008               	return
  3781     0438                     __end_of_WDT_Initialize:
  3782                           
  3783                           	psect	text15
  3784     04B1                     __ptext15:	
  3785 ;; *************** function _PIN_MANAGER_Initialize *****************
  3786 ;; Defined at:
  3787 ;;		line 55 in file "mcc_generated_files/pin_manager.c"
  3788 ;; Parameters:    Size  Location     Type
  3789 ;;		None
  3790 ;; Auto vars:     Size  Location     Type
  3791 ;;		None
  3792 ;; Return value:  Size  Location     Type
  3793 ;;                  1    wreg      void 
  3794 ;; Registers used:
  3795 ;;		wreg, status,2
  3796 ;; Tracked objects:
  3797 ;;		On entry : 0/0
  3798 ;;		On exit  : 0/0
  3799 ;;		Unchanged: 0/0
  3800 ;; Data sizes:     COMMON   BANK0   BANK1   BANK2   BANK3   BANK4
  3801 ;;      Params:         0       0       0       0       0       0
  3802 ;;      Locals:         0       0       0       0       0       0
  3803 ;;      Temps:          0       0       0       0       0       0
  3804 ;;      Totals:         0       0       0       0       0       0
  3805 ;;Total ram usage:        0 bytes
  3806 ;; Hardware stack levels used: 1
  3807 ;; This function calls:
  3808 ;;		Nothing
  3809 ;; This function is called by:
  3810 ;;		_SYSTEM_Initialize
  3811 ;; This function uses a non-reentrant model
  3812 ;;
  3813                           
  3814     04B1                     _PIN_MANAGER_Initialize:	
  3815                           ;psect for function _PIN_MANAGER_Initialize
  3816                           
  3817     04B1                     l1531:	
  3818                           ;incstack = 0
  3819                           ; Regs used in _PIN_MANAGER_Initialize: [wreg+status,2]
  3820                           
  3821                           
  3822                           ;mcc_generated_files/pin_manager.c: 60:     LATA = 0x00;
  3823     04B1  0022               	movlb	2	; select bank2
  3824     04B2  018C               	clrf	12	;volatile
  3825                           
  3826                           ;mcc_generated_files/pin_manager.c: 61:     LATB = 0x00;
  3827     04B3  018D               	clrf	13	;volatile
  3828     04B4                     l1533:
  3829                           
  3830                           ;mcc_generated_files/pin_manager.c: 66:     TRISA = 0xFF;
  3831     04B4  30FF               	movlw	255
  3832     04B5  0021               	movlb	1	; select bank1
  3833     04B6  008C               	movwf	12	;volatile
  3834     04B7                     l1535:
  3835                           
  3836                           ;mcc_generated_files/pin_manager.c: 67:     TRISB = 0xFF;
  3837     04B7  30FF               	movlw	255
  3838     04B8  008D               	movwf	13	;volatile
  3839     04B9                     l1537:
  3840                           
  3841                           ;mcc_generated_files/pin_manager.c: 72:     ANSELB = 0xDA;
  3842     04B9  30DA               	movlw	218
  3843     04BA  0023               	movlb	3	; select bank3
  3844     04BB  008D               	movwf	13	;volatile
  3845     04BC                     l1539:
  3846                           
  3847                           ;mcc_generated_files/pin_manager.c: 73:     ANSELA = 0x1F;
  3848     04BC  301F               	movlw	31
  3849     04BD  008C               	movwf	12	;volatile
  3850                           
  3851                           ;mcc_generated_files/pin_manager.c: 78:     WPUB = 0x00;
  3852     04BE  0024               	movlb	4	; select bank4
  3853     04BF  018D               	clrf	13	;volatile
  3854                           
  3855                           ;mcc_generated_files/pin_manager.c: 79:     WPUA = 0x00;
  3856     04C0  018C               	clrf	12	;volatile
  3857     04C1                     l1541:
  3858                           
  3859                           ;mcc_generated_files/pin_manager.c: 80:     OPTION_REGbits.nWPUEN = 1;
  3860     04C1  0021               	movlb	1	; select bank1
  3861     04C2  1795               	bsf	21,7	;volatile
  3862     04C3                     l1543:
  3863                           
  3864                           ;mcc_generated_files/pin_manager.c: 86:     APFCON0 = 0x80;
  3865     04C3  3080               	movlw	128
  3866     04C4  0022               	movlb	2	; select bank2
  3867     04C5  009D               	movwf	29	;volatile
  3868     04C6                     l1545:
  3869                           
  3870                           ;mcc_generated_files/pin_manager.c: 87:     APFCON1 = 0x01;
  3871     04C6  3001               	movlw	1
  3872     04C7  009E               	movwf	30	;volatile
  3873     04C8                     l193:
  3874     04C8  0008               	return
  3875     04C9                     __end_of_PIN_MANAGER_Initialize:
  3876                           
  3877                           	psect	text16
  3878     0474                     __ptext16:	
  3879 ;; *************** function _OSCILLATOR_Initialize *****************
  3880 ;; Defined at:
  3881 ;;		line 59 in file "mcc_generated_files/mcc.c"
  3882 ;; Parameters:    Size  Location     Type
  3883 ;;		None
  3884 ;; Auto vars:     Size  Location     Type
  3885 ;;		None
  3886 ;; Return value:  Size  Location     Type
  3887 ;;                  1    wreg      void 
  3888 ;; Registers used:
  3889 ;;		wreg, status,2
  3890 ;; Tracked objects:
  3891 ;;		On entry : 0/0
  3892 ;;		On exit  : 0/0
  3893 ;;		Unchanged: 0/0
  3894 ;; Data sizes:     COMMON   BANK0   BANK1   BANK2   BANK3   BANK4
  3895 ;;      Params:         0       0       0       0       0       0
  3896 ;;      Locals:         0       0       0       0       0       0
  3897 ;;      Temps:          0       0       0       0       0       0
  3898 ;;      Totals:         0       0       0       0       0       0
  3899 ;;Total ram usage:        0 bytes
  3900 ;; Hardware stack levels used: 1
  3901 ;; This function calls:
  3902 ;;		Nothing
  3903 ;; This function is called by:
  3904 ;;		_SYSTEM_Initialize
  3905 ;; This function uses a non-reentrant model
  3906 ;;
  3907                           
  3908     0474                     _OSCILLATOR_Initialize:	
  3909                           ;psect for function _OSCILLATOR_Initialize
  3910                           
  3911     0474                     l1547:	
  3912                           ;incstack = 0
  3913                           ; Regs used in _OSCILLATOR_Initialize: [wreg+status,2]
  3914                           
  3915                           
  3916                           ;mcc_generated_files/mcc.c: 62:     OSCCON = 0x70;
  3917     0474  3070               	movlw	112
  3918     0475  0021               	movlb	1	; select bank1
  3919     0476  0099               	movwf	25	;volatile
  3920     0477                     l1549:
  3921                           
  3922                           ;mcc_generated_files/mcc.c: 64:     OSCTUNE = 0x00;
  3923     0477  0198               	clrf	24	;volatile
  3924     0478                     l1551:
  3925                           
  3926                           ;mcc_generated_files/mcc.c: 66:     BORCON = 0x00;
  3927     0478  0022               	movlb	2	; select bank2
  3928     0479  0196               	clrf	22	;volatile
  3929     047A                     l162:	
  3930                           ;mcc_generated_files/mcc.c: 69:     {;mcc_generated_files/mcc.c: 70:     }
  3931                           
  3932                           
  3933                           ;mcc_generated_files/mcc.c: 68:     while(PLLR == 0)
  3934     047A  0021               	movlb	1	; select bank1
  3935     047B  1F1A               	btfss	26,6	;volatile
  3936     047C  2C7E               	goto	u681
  3937     047D  2C7F               	goto	u680
  3938     047E                     u681:
  3939     047E  2C7A               	goto	l162
  3940     047F                     u680:
  3941     047F                     l165:
  3942     047F  0008               	return
  3943     0480                     __end_of_OSCILLATOR_Initialize:
  3944                           
  3945                           	psect	text17
  3946     04C9                     __ptext17:	
  3947 ;; *************** function _EUSART_Initialize *****************
  3948 ;; Defined at:
  3949 ;;		line 66 in file "mcc_generated_files/eusart.c"
  3950 ;; Parameters:    Size  Location     Type
  3951 ;;		None
  3952 ;; Auto vars:     Size  Location     Type
  3953 ;;		None
  3954 ;; Return value:  Size  Location     Type
  3955 ;;                  1    wreg      void 
  3956 ;; Registers used:
  3957 ;;		wreg, status,2, status,0, pclath, cstack
  3958 ;; Tracked objects:
  3959 ;;		On entry : 0/0
  3960 ;;		On exit  : 0/0
  3961 ;;		Unchanged: 0/0
  3962 ;; Data sizes:     COMMON   BANK0   BANK1   BANK2   BANK3   BANK4
  3963 ;;      Params:         0       0       0       0       0       0
  3964 ;;      Locals:         0       0       0       0       0       0
  3965 ;;      Temps:          0       0       0       0       0       0
  3966 ;;      Totals:         0       0       0       0       0       0
  3967 ;;Total ram usage:        0 bytes
  3968 ;; Hardware stack levels used: 1
  3969 ;; Hardware stack levels required when called: 1
  3970 ;; This function calls:
  3971 ;;		_EUSART_SetErrorHandler
  3972 ;;		_EUSART_SetFramingErrorHandler
  3973 ;;		_EUSART_SetOverrunErrorHandler
  3974 ;; This function is called by:
  3975 ;;		_SYSTEM_Initialize
  3976 ;; This function uses a non-reentrant model
  3977 ;;
  3978                           
  3979     04C9                     _EUSART_Initialize:	
  3980                           ;psect for function _EUSART_Initialize
  3981                           
  3982     04C9                     l1519:	
  3983                           ;incstack = 0
  3984                           ; Regs used in _EUSART_Initialize: [wreg+status,2+status,0+pclath+cstack]
  3985                           
  3986                           
  3987                           ;mcc_generated_files/eusart.c: 71:     BAUDCON = 0x08;
  3988     04C9  3008               	movlw	8
  3989     04CA  0023               	movlb	3	; select bank3
  3990     04CB  009F               	movwf	31	;volatile
  3991                           
  3992                           ;mcc_generated_files/eusart.c: 74:     RCSTA = 0x90;
  3993     04CC  3090               	movlw	144
  3994     04CD  009D               	movwf	29	;volatile
  3995                           
  3996                           ;mcc_generated_files/eusart.c: 77:     TXSTA = 0x24;
  3997     04CE  3024               	movlw	36
  3998     04CF  009E               	movwf	30	;volatile
  3999                           
  4000                           ;mcc_generated_files/eusart.c: 80:     SPBRGL = 0x8A;
  4001     04D0  308A               	movlw	138
  4002     04D1  009B               	movwf	27	;volatile
  4003     04D2                     l1521:
  4004                           
  4005                           ;mcc_generated_files/eusart.c: 83:     SPBRGH = 0x00;
  4006     04D2  019C               	clrf	28	;volatile
  4007     04D3                     l1523:
  4008                           
  4009                           ;mcc_generated_files/eusart.c: 86:     EUSART_SetFramingErrorHandler(EUSART_DefaultFrami
      +                          ngErrorHandler);
  4010     04D3  3000               	movlw	0
  4011     04D4  00F0               	movwf	EUSART_SetFramingErrorHandler@interruptHandler
  4012     04D5  3000               	movlw	0
  4013     04D6  00F1               	movwf	EUSART_SetFramingErrorHandler@interruptHandler+1
  4014     04D7  3184  2443  3184   	fcall	_EUSART_SetFramingErrorHandler
  4015     04DA                     l1525:
  4016                           
  4017                           ;mcc_generated_files/eusart.c: 87:     EUSART_SetOverrunErrorHandler(EUSART_DefaultOverr
      +                          unErrorHandler);
  4018     04DA  3000               	movlw	0
  4019     04DB  00F0               	movwf	EUSART_SetOverrunErrorHandler@interruptHandler
  4020     04DC  3000               	movlw	0
  4021     04DD  00F1               	movwf	EUSART_SetOverrunErrorHandler@interruptHandler+1
  4022     04DE  3184  2449  3184   	fcall	_EUSART_SetOverrunErrorHandler
  4023     04E1                     l1527:
  4024                           
  4025                           ;mcc_generated_files/eusart.c: 88:     EUSART_SetErrorHandler(EUSART_DefaultErrorHandler
      +                          );
  4026     04E1  3000               	movlw	0
  4027     04E2  00F0               	movwf	EUSART_SetErrorHandler@interruptHandler
  4028     04E3  3000               	movlw	0
  4029     04E4  00F1               	movwf	EUSART_SetErrorHandler@interruptHandler+1
  4030     04E5  3184  243D  3184   	fcall	_EUSART_SetErrorHandler
  4031     04E8                     l1529:
  4032                           
  4033                           ;mcc_generated_files/eusart.c: 90:     eusartRxLastError.status = 0;
  4034     04E8  0020               	movlb	0	; select bank0
  4035     04E9  01BE               	clrf	_eusartRxLastError	;volatile
  4036     04EA                     l93:
  4037     04EA  0008               	return
  4038     04EB                     __end_of_EUSART_Initialize:
  4039                           
  4040                           	psect	text18
  4041     0449                     __ptext18:	
  4042 ;; *************** function _EUSART_SetOverrunErrorHandler *****************
  4043 ;; Defined at:
  4044 ;;		line 161 in file "mcc_generated_files/eusart.c"
  4045 ;; Parameters:    Size  Location     Type
  4046 ;;  interruptHan    2    0[COMMON] PTR FTN()void 
  4047 ;;		 -> EUSART_DefaultOverrunErrorHandler(1), 
  4048 ;; Auto vars:     Size  Location     Type
  4049 ;;		None
  4050 ;; Return value:  Size  Location     Type
  4051 ;;                  1    wreg      void 
  4052 ;; Registers used:
  4053 ;;		wreg
  4054 ;; Tracked objects:
  4055 ;;		On entry : 0/0
  4056 ;;		On exit  : 0/0
  4057 ;;		Unchanged: 0/0
  4058 ;; Data sizes:     COMMON   BANK0   BANK1   BANK2   BANK3   BANK4
  4059 ;;      Params:         2       0       0       0       0       0
  4060 ;;      Locals:         0       0       0       0       0       0
  4061 ;;      Temps:          0       0       0       0       0       0
  4062 ;;      Totals:         2       0       0       0       0       0
  4063 ;;Total ram usage:        2 bytes
  4064 ;; Hardware stack levels used: 1
  4065 ;; This function calls:
  4066 ;;		Nothing
  4067 ;; This function is called by:
  4068 ;;		_EUSART_Initialize
  4069 ;; This function uses a non-reentrant model
  4070 ;;
  4071                           
  4072     0449                     _EUSART_SetOverrunErrorHandler:	
  4073                           ;psect for function _EUSART_SetOverrunErrorHandler
  4074                           
  4075     0449                     l1465:	
  4076                           ;incstack = 0
  4077                           ; Regs used in _EUSART_SetOverrunErrorHandler: [wreg]
  4078                           
  4079                           
  4080                           ;mcc_generated_files/eusart.c: 162:     EUSART_OverrunErrorHandler = interruptHandler;
  4081     0449  0871               	movf	EUSART_SetOverrunErrorHandler@interruptHandler+1,w
  4082     044A  0020               	movlb	0	; select bank0
  4083     044B  00B8               	movwf	_EUSART_OverrunErrorHandler+1
  4084     044C  0870               	movf	EUSART_SetOverrunErrorHandler@interruptHandler,w
  4085     044D  00B7               	movwf	_EUSART_OverrunErrorHandler
  4086     044E                     l135:
  4087     044E  0008               	return
  4088     044F                     __end_of_EUSART_SetOverrunErrorHandler:
  4089                           
  4090                           	psect	text19
  4091     0443                     __ptext19:	
  4092 ;; *************** function _EUSART_SetFramingErrorHandler *****************
  4093 ;; Defined at:
  4094 ;;		line 157 in file "mcc_generated_files/eusart.c"
  4095 ;; Parameters:    Size  Location     Type
  4096 ;;  interruptHan    2    0[COMMON] PTR FTN()void 
  4097 ;;		 -> EUSART_DefaultFramingErrorHandler(1), 
  4098 ;; Auto vars:     Size  Location     Type
  4099 ;;		None
  4100 ;; Return value:  Size  Location     Type
  4101 ;;                  1    wreg      void 
  4102 ;; Registers used:
  4103 ;;		wreg
  4104 ;; Tracked objects:
  4105 ;;		On entry : 0/0
  4106 ;;		On exit  : 0/0
  4107 ;;		Unchanged: 0/0
  4108 ;; Data sizes:     COMMON   BANK0   BANK1   BANK2   BANK3   BANK4
  4109 ;;      Params:         2       0       0       0       0       0
  4110 ;;      Locals:         0       0       0       0       0       0
  4111 ;;      Temps:          0       0       0       0       0       0
  4112 ;;      Totals:         2       0       0       0       0       0
  4113 ;;Total ram usage:        2 bytes
  4114 ;; Hardware stack levels used: 1
  4115 ;; This function calls:
  4116 ;;		Nothing
  4117 ;; This function is called by:
  4118 ;;		_EUSART_Initialize
  4119 ;; This function uses a non-reentrant model
  4120 ;;
  4121                           
  4122     0443                     _EUSART_SetFramingErrorHandler:	
  4123                           ;psect for function _EUSART_SetFramingErrorHandler
  4124                           
  4125     0443                     l1463:	
  4126                           ;incstack = 0
  4127                           ; Regs used in _EUSART_SetFramingErrorHandler: [wreg]
  4128                           
  4129                           
  4130                           ;mcc_generated_files/eusart.c: 158:     EUSART_FramingErrorHandler = interruptHandler;
  4131     0443  0871               	movf	EUSART_SetFramingErrorHandler@interruptHandler+1,w
  4132     0444  0020               	movlb	0	; select bank0
  4133     0445  00BA               	movwf	_EUSART_FramingErrorHandler+1
  4134     0446  0870               	movf	EUSART_SetFramingErrorHandler@interruptHandler,w
  4135     0447  00B9               	movwf	_EUSART_FramingErrorHandler
  4136     0448                     l132:
  4137     0448  0008               	return
  4138     0449                     __end_of_EUSART_SetFramingErrorHandler:
  4139                           
  4140                           	psect	text20
  4141     043D                     __ptext20:	
  4142 ;; *************** function _EUSART_SetErrorHandler *****************
  4143 ;; Defined at:
  4144 ;;		line 165 in file "mcc_generated_files/eusart.c"
  4145 ;; Parameters:    Size  Location     Type
  4146 ;;  interruptHan    2    0[COMMON] PTR FTN()void 
  4147 ;;		 -> EUSART_DefaultErrorHandler(1), 
  4148 ;; Auto vars:     Size  Location     Type
  4149 ;;		None
  4150 ;; Return value:  Size  Location     Type
  4151 ;;                  1    wreg      void 
  4152 ;; Registers used:
  4153 ;;		wreg
  4154 ;; Tracked objects:
  4155 ;;		On entry : 0/0
  4156 ;;		On exit  : 0/0
  4157 ;;		Unchanged: 0/0
  4158 ;; Data sizes:     COMMON   BANK0   BANK1   BANK2   BANK3   BANK4
  4159 ;;      Params:         2       0       0       0       0       0
  4160 ;;      Locals:         0       0       0       0       0       0
  4161 ;;      Temps:          0       0       0       0       0       0
  4162 ;;      Totals:         2       0       0       0       0       0
  4163 ;;Total ram usage:        2 bytes
  4164 ;; Hardware stack levels used: 1
  4165 ;; This function calls:
  4166 ;;		Nothing
  4167 ;; This function is called by:
  4168 ;;		_EUSART_Initialize
  4169 ;; This function uses a non-reentrant model
  4170 ;;
  4171                           
  4172     043D                     _EUSART_SetErrorHandler:	
  4173                           ;psect for function _EUSART_SetErrorHandler
  4174                           
  4175     043D                     l1467:	
  4176                           ;incstack = 0
  4177                           ; Regs used in _EUSART_SetErrorHandler: [wreg]
  4178                           
  4179                           
  4180                           ;mcc_generated_files/eusart.c: 166:     EUSART_ErrorHandler = interruptHandler;
  4181     043D  0871               	movf	EUSART_SetErrorHandler@interruptHandler+1,w
  4182     043E  0020               	movlb	0	; select bank0
  4183     043F  00B6               	movwf	_EUSART_ErrorHandler+1
  4184     0440  0870               	movf	EUSART_SetErrorHandler@interruptHandler,w
  4185     0441  00B5               	movwf	_EUSART_ErrorHandler
  4186     0442                     l138:
  4187     0442  0008               	return
  4188     0443                     __end_of_EUSART_SetErrorHandler:
  4189     007E                     btemp	set	126	;btemp
  4190     007E                     wtemp0	set	126
  4191                           
  4192                           	psect	config
  4193                           
  4194                           ;Config register CONFIG1 @ 0x8007
  4195                           ;	Oscillator Selection
  4196                           ;	FOSC = INTOSC, INTOSC oscillator: I/O function on CLKIN pin
  4197                           ;	Watchdog Timer Enable
  4198                           ;	WDTE = OFF, WDT disabled
  4199                           ;	Power-up Timer Enable
  4200                           ;	PWRTE = OFF, PWRT disabled
  4201                           ;	MCLR Pin Function Select
  4202                           ;	MCLRE = ON, MCLR/VPP pin function is MCLR
  4203                           ;	Flash Program Memory Code Protection
  4204                           ;	CP = OFF, Program memory code protection is disabled
  4205                           ;	Data Memory Code Protection
  4206                           ;	CPD = OFF, Data memory code protection is disabled
  4207                           ;	Brown-out Reset Enable
  4208                           ;	BOREN = ON, Brown-out Reset enabled
  4209                           ;	Clock Out Enable
  4210                           ;	CLKOUTEN = OFF, CLKOUT function is disabled. I/O or oscillator function on the CLKOUT 
      +                          pin
  4211                           ;	Internal/External Switchover
  4212                           ;	IESO = ON, Internal/External Switchover mode is enabled
  4213                           ;	Fail-Safe Clock Monitor Enable
  4214                           ;	FCMEN = ON, Fail-Safe Clock Monitor is enabled
  4215     8007                     	org	32775
  4216     8007  3FE4               	dw	16356
  4217                           
  4218                           ;Config register CONFIG2 @ 0x8008
  4219                           ;	Flash Memory Self-Write Protection
  4220                           ;	WRT = OFF, Write protection off
  4221                           ;	PLL Enable
  4222                           ;	PLLEN = ON, 4x PLL enabled
  4223                           ;	Stack Overflow/Underflow Reset Enable
  4224                           ;	STVREN = ON, Stack Overflow or Underflow will cause a Reset
  4225                           ;	Brown-out Reset Voltage Selection
  4226                           ;	BORV = LO, Brown-out Reset Voltage (Vbor), low trip point selected.
  4227                           ;	In-Circuit Debugger Mode
  4228                           ;	DEBUG = 0x1, unprogrammed default
  4229                           ;	Low-Voltage Programming Enable
  4230                           ;	LVP = ON, Low-voltage programming enabled
  4231     8008                     	org	32776
  4232     8008  3FFF               	dw	16383

Data Sizes:
    Strings     0
    Constant    236
    Data        0
    BSS         252
    Persistent  32
    Stack       0

Auto Spaces:
    Space          Size  Autos    Used
    COMMON           14     13      14
    BANK0            80     12      43
    BANK1            80      0       0
    BANK2            80      0       0
    BANK3            80      0       0
    BANK4            48      0       0

Pointer List with Targets:

    __eecpymem@cp	PTR volatile unsigned char  size(1) Largest target is 8
		 -> __eetoc@data(COMMON[1]), __eetofl@data(COMMON[4]), __eetoft@data(COMMON[4]), __eetoi@data(COMMON[2]), 
		 -> __eetol@data(COMMON[4]), __eetom@data(COMMON[3]), __eetoo@data(COMMON[8]), 

    __eecpymem@from	PTR eeprom unsigned char  size(1) Largest target is 220
		 -> ee(EEDATA[220]), 

    __eecpymem@to	PTR volatile unsigned char  size(1) Largest target is 8
		 -> __eetoc@data(COMMON[1]), __eetofl@data(COMMON[4]), __eetoft@data(COMMON[4]), __eetoi@data(COMMON[2]), 
		 -> __eetol@data(COMMON[4]), __eetom@data(COMMON[3]), __eetoo@data(COMMON[8]), 

    enviaMsg@msg	PTR const unsigned char  size(2) Largest target is 50
		 -> msg0(CODE[50]), msg1(CODE[22]), msg2(CODE[28]), msg3(CODE[9]), 
		 -> msg4(CODE[15]), msg5(CODE[38]), msg6(CODE[38]), msg7(CODE[36]), 

    EUSART_ErrorHandler	PTR FTN()void  size(2) Largest target is 1
		 -> EUSART_DefaultErrorHandler(), NULL(), 

    EUSART_FramingErrorHandler	PTR FTN()void  size(2) Largest target is 1
		 -> EUSART_DefaultFramingErrorHandler(), NULL(), 

    EUSART_OverrunErrorHandler	PTR FTN()void  size(2) Largest target is 1
		 -> EUSART_DefaultOverrunErrorHandler(), NULL(), 

    EUSART_SetErrorHandler@interruptHandler	PTR FTN()void  size(2) Largest target is 1
		 -> EUSART_DefaultErrorHandler(), 

    EUSART_SetFramingErrorHandler@interruptHandler	PTR FTN()void  size(2) Largest target is 1
		 -> EUSART_DefaultFramingErrorHandler(), 

    EUSART_SetOverrunErrorHandler@interruptHandler	PTR FTN()void  size(2) Largest target is 1
		 -> EUSART_DefaultOverrunErrorHandler(), 

    __memcpyee@from	PTR const unsigned char  size(1) Largest target is 8
		 -> __ctoee@data(COMMON[1]), __fltoee@data(COMMON[4]), __fttoee@data(COMMON[4]), __itoee@data(COMMON[2]), 
		 -> __ltoee@data(COMMON[4]), __mtoee@data(COMMON[3]), __otoee@data(COMMON[8]), 

    __memcpyee@ptr	PTR const unsigned char  size(1) Largest target is 8
		 -> __ctoee@data(COMMON[1]), __fltoee@data(COMMON[4]), __fttoee@data(COMMON[4]), __itoee@data(COMMON[2]), 
		 -> __ltoee@data(COMMON[4]), __mtoee@data(COMMON[3]), __otoee@data(COMMON[8]), 

    __memcpyee@to	PTR eeprom unsigned char  size(1) Largest target is 220
		 -> ee(EEDATA[220]), 


Critical Paths under _main in COMMON

    _main->_analisaRx
    _analisaRx->_recebeGuardaNome
    _recebeGuardaNome->___ctoee
    _enviaMsg->_EUSART_Write
    ___ctoee->___memcpyee
    _enviaNomes->___eetoc
    ___eetoc->___eecpymem
    _EUSART_Initialize->_EUSART_SetErrorHandler
    _EUSART_Initialize->_EUSART_SetFramingErrorHandler
    _EUSART_Initialize->_EUSART_SetOverrunErrorHandler

Critical Paths under _main in BANK0

    _main->_analisaRx
    _analisaRx->_enviaNomes

Critical Paths under _main in BANK1

    None.

Critical Paths under _main in BANK2

    None.

Critical Paths under _main in BANK3

    None.

Critical Paths under _main in BANK4

    None.

Call Graph Tables:

 ---------------------------------------------------------------------------------
 (Depth) Function   	        Calls       Base Space   Used Autos Params    Refs
 ---------------------------------------------------------------------------------
 (0) _main                                                 1     1      0    9779
                                             12 COMMON     1     1      0
                        _EUSART_Read
                 _EUSART_is_rx_ready
                  _SYSTEM_Initialize
                          _analisaRx
 ---------------------------------------------------------------------------------
 (1) _analisaRx                                            7     7      0    9352
                                             11 COMMON     1     1      0
                                              6 BANK0      6     6      0
                       _EUSART_Write
                             ___bmul
                            ___ctoee
                            ___eetoc
                           _enviaMsg
                         _enviaNomes
                   _recebeGuardaNome
 ---------------------------------------------------------------------------------
 (2) _recebeGuardaNome                                     3     3      0    2843
                                              8 COMMON     3     3      0
                        _EUSART_Read
                 _EUSART_is_rx_ready
                             ___bmul
                            ___ctoee
                           _enviaMsg
 ---------------------------------------------------------------------------------
 (3) _enviaMsg                                             6     4      2     720
                                              1 COMMON     6     4      2
                       _EUSART_Write
 ---------------------------------------------------------------------------------
 (3) ___ctoee                                              2     1      1    1580
                                              6 COMMON     2     1      1
                             ___bmul (ARG)
                         ___memcpyee
 ---------------------------------------------------------------------------------
 (4) ___memcpyee                                           6     4      2    1397
                                              0 COMMON     6     4      2
 ---------------------------------------------------------------------------------
 (3) _EUSART_is_rx_ready                                   0     0      0       0
 ---------------------------------------------------------------------------------
 (3) _EUSART_Read                                          0     0      0       0
 ---------------------------------------------------------------------------------
 (2) _enviaNomes                                           7     7      0    2126
                                              8 COMMON     1     1      0
                                              0 BANK0      6     6      0
                       _EUSART_Write
                             ___bmul
                            ___eetoc
 ---------------------------------------------------------------------------------
 (3) ___eetoc                                              2     2      0    1360
                                              6 COMMON     2     2      0
                         ___eecpymem
 ---------------------------------------------------------------------------------
 (4) ___eecpymem                                           6     4      2    1229
                                              0 COMMON     6     4      2
 ---------------------------------------------------------------------------------
 (3) ___bmul                                               4     3      1     430
                                              0 COMMON     4     3      1
 ---------------------------------------------------------------------------------
 (4) _EUSART_Write                                         1     1      0      22
                                              0 COMMON     1     1      0
 ---------------------------------------------------------------------------------
 (1) _SYSTEM_Initialize                                    0     0      0     294
                  _EUSART_Initialize
              _OSCILLATOR_Initialize
             _PIN_MANAGER_Initialize
                     _WDT_Initialize
 ---------------------------------------------------------------------------------
 (2) _WDT_Initialize                                       0     0      0       0
 ---------------------------------------------------------------------------------
 (2) _PIN_MANAGER_Initialize                               0     0      0       0
 ---------------------------------------------------------------------------------
 (2) _OSCILLATOR_Initialize                                0     0      0       0
 ---------------------------------------------------------------------------------
 (2) _EUSART_Initialize                                    0     0      0     294
             _EUSART_SetErrorHandler
      _EUSART_SetFramingErrorHandler
      _EUSART_SetOverrunErrorHandler
 ---------------------------------------------------------------------------------
 (3) _EUSART_SetOverrunErrorHandler                        2     0      2      98
                                              0 COMMON     2     0      2
 ---------------------------------------------------------------------------------
 (3) _EUSART_SetFramingErrorHandler                        2     0      2      98
                                              0 COMMON     2     0      2
 ---------------------------------------------------------------------------------
 (3) _EUSART_SetErrorHandler                               2     0      2      98
                                              0 COMMON     2     0      2
 ---------------------------------------------------------------------------------
 Estimated maximum stack depth 4
 ---------------------------------------------------------------------------------

 Call Graph Graphs:

 _main (ROOT)
   _EUSART_Read
   _EUSART_is_rx_ready
   _SYSTEM_Initialize
     _EUSART_Initialize
       _EUSART_SetErrorHandler
       _EUSART_SetFramingErrorHandler
       _EUSART_SetOverrunErrorHandler
     _OSCILLATOR_Initialize
     _PIN_MANAGER_Initialize
     _WDT_Initialize
   _analisaRx
     _EUSART_Write
     ___bmul
     ___ctoee
       ___bmul (ARG)
       ___memcpyee (ARG)
     ___eetoc
       ___eecpymem
     _enviaMsg
       _EUSART_Write
     _enviaNomes
       _EUSART_Write
       ___bmul
       ___eetoc
     _recebeGuardaNome
       _EUSART_Read
       _EUSART_is_rx_ready
       ___bmul
       ___ctoee
       _enviaMsg

 Address spaces:
Name               Size   Autos  Total    Cost      Usage
BIGRAM             170      0       0       0        0.0%
EEDATA             100      0      DC       0       85.9%
NULL                 0      0       0       0        0.0%
CODE                 0      0       0       0        0.0%
BITCOMMON            E      0       0       1        0.0%
BITSFR0              0      0       0       1        0.0%
SFR0                 0      0       0       1        0.0%
COMMON               E      D       E       2      100.0%
BITSFR1              0      0       0       2        0.0%
SFR1                 0      0       0       2        0.0%
BITSFR2              0      0       0       3        0.0%
SFR2                 0      0       0       3        0.0%
STACK                0      0       0       3        0.0%
BITSFR3              0      0       0       4        0.0%
SFR3                 0      0       0       4        0.0%
ABS                  0      0      39       4        0.0%
BITBANK0            50      0       0       5        0.0%
BITSFR4              0      0       0       5        0.0%
SFR4                 0      0       0       5        0.0%
BANK0               50      C      2B       6       53.8%
BITSFR5              0      0       0       6        0.0%
SFR5                 0      0       0       6        0.0%
BITBANK1            50      0       0       7        0.0%
BITSFR6              0      0       0       7        0.0%
SFR6                 0      0       0       7        0.0%
BANK1               50      0       0       8        0.0%
BITSFR7              0      0       0       8        0.0%
SFR7                 0      0       0       8        0.0%
BITBANK2            50      0       0       9        0.0%
BITSFR8              0      0       0       9        0.0%
SFR8                 0      0       0       9        0.0%
BANK2               50      0       0      10        0.0%
BITSFR9              0      0       0      10        0.0%
SFR9                 0      0       0      10        0.0%
BITBANK3            50      0       0      11        0.0%
BITSFR10             0      0       0      11        0.0%
SFR10                0      0       0      11        0.0%
BANK3               50      0       0      12        0.0%
BITSFR11             0      0       0      12        0.0%
SFR11                0      0       0      12        0.0%
BITBANK4            30      0       0      13        0.0%
BITSFR12             0      0       0      13        0.0%
SFR12                0      0       0      13        0.0%
BANK4               30      0       0      14        0.0%
BITSFR13             0      0       0      14        0.0%
SFR13                0      0       0      14        0.0%
BITSFR14             0      0       0      15        0.0%
SFR14                0      0       0      15        0.0%
DATA                 0      0      39      15        0.0%
BITSFR15             0      0       0      16        0.0%
SFR15                0      0       0      16        0.0%
BITSFR16             0      0       0      17        0.0%
SFR16                0      0       0      17        0.0%
BITSFR17             0      0       0      18        0.0%
SFR17                0      0       0      18        0.0%
BITSFR18             0      0       0      19        0.0%
SFR18                0      0       0      19        0.0%
BITSFR19             0      0       0      20        0.0%
SFR19                0      0       0      20        0.0%
BITSFR20             0      0       0      21        0.0%
SFR20                0      0       0      21        0.0%
BITSFR21             0      0       0      22        0.0%
SFR21                0      0       0      22        0.0%
BITSFR22             0      0       0      23        0.0%
SFR22                0      0       0      23        0.0%
BITSFR23             0      0       0      24        0.0%
SFR23                0      0       0      24        0.0%
BITSFR24             0      0       0      25        0.0%
SFR24                0      0       0      25        0.0%
BITSFR25             0      0       0      26        0.0%
SFR25                0      0       0      26        0.0%
BITSFR26             0      0       0      27        0.0%
SFR26                0      0       0      27        0.0%
BITSFR27             0      0       0      28        0.0%
SFR27                0      0       0      28        0.0%
BITSFR28             0      0       0      29        0.0%
SFR28                0      0       0      29        0.0%
BITSFR29             0      0       0      30        0.0%
SFR29                0      0       0      30        0.0%
BITSFR30             0      0       0      31        0.0%
SFR30                0      0       0      31        0.0%
BITSFR31             0      0       0      32        0.0%
SFR31                0      0       0      32        0.0%


Microchip Technology PIC Macro Assembler V2.46 build 20240104201356 
Symbol Table                                                                                   Sat Aug 03 13:50:43 2024

                               ___bmul@product 0072                                             l93 04EA  
                                           _ee 0000                                enviaNomes@j_412 0041  
                                          l101 043C                                            l110 048D  
                                          l120 045E                                            l114 049B  
                                          l132 0448                                            l117 0456  
                                          l302 0546                                            l135 044E  
                                          l303 0578                                            l138 0442  
                                          l162 047A                                            l340 057E  
                                          l236 0514                                            l165 047F  
                                          l333 0525                                            l254 06E4  
                                          l159 048C                                            l351 05C2  
                                          l168 0437                                            l328 0518  
                                          l280 07B0                                            l193 04C8  
                                          l337 0542                                            l345 0593  
                                          l354 0473                                            l266 0625  
                                          l275 0729                                            l348 05AC  
                                          l369 0468                                            l297 07F3  
                                          l487 04B0                                            u600 05AB  
                                          u601 05AA                                            u610 05BA  
                                          u611 05B9                                            u540 045B  
                                          u700 0667                                            u620 05C2  
                                          u541 045A                                            u701 0666  
                                          u621 05C1                                            u550 051D  
                                          u710 0679                                            u630 0492  
                                          u551 051C                                            u711 0678  
                                          u631 0491                                            u560 0529  
                                          u720 068E                                            u640 0498  
                                          u800 0625                                            u561 0528  
                                          u721 068D                                            u705 0663  
                                          u641 0497                                            u801 0624  
                                          u570 0542                                            u730 06BC  
                                          u650 0510                                            u810 06EC  
                                          u571 0541                                            u731 06BB  
                                          u651 050F                                            u811 06EB  
                                          u660 04A2                                            u740 06CE  
                                          u580 0583                                            u900 07BD  
                                          u820 0701                                            u661 04A1  
                                          u741 06CD                                            u581 0582  
                                          u901 07BC                                            u821 0700  
                                          u670 04AF                                            u750 06E4  
                                          u590 0598                                            u910 07C4  
                                          u830 0707                                            u671 04AE  
                                          u751 06E3                                            u735 06B8  
                                          u591 0597                                            u911 07C3  
                                          u831 0706                                            u680 047F  
                                          u760 05D6                                            u920 07E4  
                                          u840 071C                                            u681 047E  
                                          u761 05D5                                            u921 07E3  
                                          u905 07B9                                            u841 071B  
                                          u690 0639                                            u770 05E0  
                                          u850 0730                                            u930 054E  
                                          u755 06E0                                            u691 0638  
                                          u771 05DF                                            u851 072F  
                                          u931 054D                                            u780 05F3  
                                          u860 0743                                            u940 0558  
                                          u781 05F2                                            u925 07E0  
                                          u861 0742                                            u941 0557  
                                          u790 05FE                                            u870 0778  
                                          u950 055E                                            u791 05FD  
                                          u871 0777                                            u951 055D  
                                          u880 078A                                            u960 0564  
                                          u881 0789                                            u961 0563  
                                          u890 07A4                                            u970 056A  
                                          u891 07A3                                            u875 0774  
                                          u971 0569                                            u980 0574  
                                          u981 0573                                   ___ctoee@addr 0077  
                                 ___ctoee@data 0076                 ?_EUSART_SetFramingErrorHandler 0070  
                                          wreg 0009                                   ?_EUSART_Read 0070  
                                         l1413 0456                                           l1421 0529  
                                         l1501 0460                                           l1415 045B  
                                         l1511 04A6                                           l1423 052D  
                                         l1431 053B                                           l1521 04D2  
                                         l1513 04A8                                           l1505 049D  
                                         l1425 052E                                           l1417 0516  
                                         l1441 059D                                           l1433 057C  
                                         l1601 05CE                                           l1523 04D3  
                                         l1531 04B1                                           l1515 04AF  
                                         l1507 049E                                           l1427 0533  
                                         l1419 051D                                           l1451 05AF  
                                         l1443 05A1                                           l1435 0583  
                                         l1611 05E1                                           l1603 05D6  
                                         l1525 04DA                                           l1541 04C1  
                                         l1533 04B4                                           l1509 04A2  
                                         l1429 0537                                           l1453 05B3  
                                         l1445 05A5                                           l1461 05BB  
                                         l1437 058E                                           l1621 05FE  
                                         l1613 05E8                                           l1605 05DA  
                                         l1463 0443                                           l1527 04E1  
                                         l1519 04C9                                           l1551 0478  
                                         l1543 04C3                                           l1535 04B7  
                                         l1455 05B4                                           l1447 05A7  
                                         l1439 0598                                           l1631 060A  
                                         l1623 0600                                           l1615 05EC  
                                         l1711 07E4                                           l1465 0449  
                                         l1529 04E8                                           l1545 04C6  
                                         l1537 04B9                                           l1553 0434  
                                         l1561 0629                                           l1481 049A  
                                         l1473 048D                                           l1457 05B5  
                                         l1449 05AB                                           l1633 061B  
                                         l1617 05F3                                           l1705 07C6  
                                         l1713 07EC                                           l1641 06EC  
                                         l1721 0558                                           l1467 043D  
                                         l1547 0474                                           l1539 04BC  
                                         l1571 065A                                           l1563 0639  
                                         l1555 0626                                           l1475 0492  
                                         l1459 05BA                                           l1491 0500  
                                         l1635 061F                                           l1619 05F9  
                                         l1707 07D2                                           l1651 0707  
                                         l1643 06F3                                           l1731 0574  
                                         l1723 055E                                           l1715 0543  
                                         l1549 0477                                           l1637 0480  
                                         l1581 0696                                           l1573 0667  
                                         l1565 0641                                           l1477 0493  
                                         l1469 0438                                           l1493 0510  
                                         l1485 04EB                                           l1629 0608  
                                         l1709 07D7                                           l1653 070A  
                                         l1661 0729                                           l1645 06F6  
                                         l1725 0564                                           l1717 054E  
                                         l1495 046A                                           l1591 06CE  
                                         l1583 069A                                           l1575 0679  
                                         l1567 0645                                           l1479 0498  
                                         l1487 04ED                                           l1671 074E  
                                         l1663 0730                                           l1655 0716  
                                         l1647 06FB                                           l1639 06E5  
                                         l1727 056A                                           l1719 0552  
                                         l1497 0472                                           l1585 06AA  
                                         l1593 06D2                                           l1569 0655  
                                         l1577 067E                                           l1489 04FC  
                                         l1681 0778                                           l1673 0752  
                                         l1665 0733                                           l1657 071C  
                                         l1649 0701                                           l1729 056E  
                                         l1595 06D7                                           l1587 06AF  
                                         l1579 068E                                           l1691 07A4  
                                         l1683 078A                                           l1675 0756  
                                         l1667 0743                                           l1659 0721  
                                         l1589 06BC                                           l1597 05C3  
                                         l1693 07AB                                           l1685 078E  
                                         l1677 0766                                           l1669 074A  
                                         l1599 05C6                                           l1679 076B  
                                         l1689 079C                                           l1697 07BE  
                                         l1699 07C4                                           _LATA 010C  
                                         _LATB 010D                                           _PLLR 04D6  
                                         _WPUA 020C                                           _WPUB 020D  
                                         _main 0543                                           _msg0 0800  
                                         _msg1 08BE                                           _msg2 08A2  
                                         _msg3 08E3                                           _msg4 08D4  
                                         _msg5 0858                                           _msg6 0832  
                                         _msg7 087E                                           fsr0h 0005  
                                         fsr1h 0007                                           indf0 0000  
                                         fsr0l 0004                                           indf1 0001  
                                         fsr1l 0006                                           btemp 007E  
                     __end_of_recebeGuardaNome 0626                                           start 0002  
                            ___bmul@multiplier 0073                                  ?_EUSART_Write 0070  
                __end_of_OSCILLATOR_Initialize 0480                                          ?_main 0070  
                              __end_of___eetoc 0474                                          _EEADR 0191  
                              __end_of___ctoee 0469                                          _RCREG 0199  
                                        _RCSTA 019D                                          _TRISA 008C  
                                        _TRISB 008D                                          _TXREG 019A  
                                        _TXSTA 019E                                 _WDT_Initialize 0434  
                                ___memcpyee@to 0075                                          status 0003  
                                        wtemp0 007E                                    enviaMsg@msg 0071  
                                  enviaNomes@i 0043                                    enviaNomes@j 003F  
                              __initialization 07F4                                   __end_of_main 057B  
                                 __end_of_msg0 0832                                   __end_of_msg1 08D4  
                                 __end_of_msg2 08BE                                   __end_of_msg3 08EC  
                                 __end_of_msg4 08E3                                   __end_of_msg5 087E  
                                 __end_of_msg6 0858                                   __end_of_msg7 08A2  
                               ??_EUSART_Write 0070                                         ??_main 007C  
                       __end_of_WDT_Initialize 0438              _EUSART_DefaultFramingErrorHandler 0000  
                   _EUSART_OverrunErrorHandler 0037                                         _EEADRH 0192  
                                       _EEADRL 0191                                         _EEDATA 0193  
                                       _EEDATH 0194                                         _EEDATL 0193  
                                       _EECON1 0195                                         _EECON2 0196  
                                       _ANSELA 018C                                         _ANSELB 018D  
                   __end_of_EUSART_is_rx_ready 043D                                         _BORCON 0116  
                                       _OSCCON 0099                                         _SPBRGH 019C  
                                       _SPBRGL 019B                                         _WDTCON 0097  
                                       ___bmul 049C                                      ??___eetoc 0076  
                                    ??___ctoee 0077                               __end_of_enviaMsg 0515  
                              ?_WDT_Initialize 0070                                 ___memcpyee@ptr 0074  
                                   ___eecpymem 0515                              _SYSTEM_Initialize 0480  
                      __end_of__initialization 07FD                             ?_SYSTEM_Initialize 0070  
                          ___bmul@multiplicand 0070                                     ___memcpyee 057B  
                               __pcstackCOMMON 0070                            ??_SYSTEM_Initialize 0072  
                               _OPTION_REGbits 0095                ??_EUSART_SetOverrunErrorHandler 0072  
                    __end_of_SYSTEM_Initialize 048D                                     __pbssBANK0 0020  
                         __end_of_EUSART_Write 045F                              ?_recebeGuardaNome 0070  
                                   __pmaintext 0543                             ??_recebeGuardaNome 0078  
                                      ?___bmul 0070                                        _BAUDCON 019F  
                                      _APFCON0 011D                                        _APFCON1 011E  
                                      _OSCTUNE 0098                       ??_EUSART_SetErrorHandler 0072  
                                  ?___eecpymem 0070                                      ?_enviaMsg 0071  
                            __end_of_analisaRx 07F4                                     _enviaNomes 0626  
                                  ?___memcpyee 0070                                        ___eetoc 0469  
                                      ___ctoee 045F                                        __ptext1 06E5  
                                      __ptext2 05C3                                        __ptext3 04EB  
                                      __ptext4 045F                                        __ptext5 057B  
                                      __ptext6 0438                                        __ptext7 048D  
                                      __ptext8 0626                                        __ptext9 0469  
                                      _countRx 003D                          _OSCILLATOR_Initialize 0474  
                     ??_PIN_MANAGER_Initialize 0070                                     analisaRx@i 0049  
                                   analisaRx@j 0045                                        clrloop0 0450  
                         end_of_initialization 07FD                                     ??_enviaMsg 0073  
        __end_of_EUSART_SetOverrunErrorHandler 044F                  _EUSART_SetOverrunErrorHandler 0449  
                                   _nome_vazio 003B                              _EUSART_Initialize 04C9  
                           ?_EUSART_Initialize 0070                                      _RCSTAbits 019D  
                           _EUSART_is_rx_ready 0438                                ___memcpyee@from 0070  
                              ___memcpyee@size 0071                            ??_EUSART_Initialize 0072  
                             ??_WDT_Initialize 0070                            ?_EUSART_is_rx_ready 0070  
                    __end_of_EUSART_Initialize 04EB                           ??_EUSART_is_rx_ready 0070  
                                    _TXSTAbits 019E                                    ?_enviaNomes 0070  
                                   main@rxChar 007C                                 __end_of___bmul 04B1  
                   _EUSART_DefaultErrorHandler 0000                                   _EUSART_Write 0455  
                       ?_OSCILLATOR_Initialize 0070                            start_initialization 07F4  
                                ??_EUSART_Read 0070                 ?_EUSART_SetOverrunErrorHandler 0070  
                   _EUSART_FramingErrorHandler 0039                                       ??___bmul 0071  
                       _EUSART_SetErrorHandler 043D                                    __pbssEEDATA 0000  
                                  __pbssCOMMON 007D                                      ___latbits 0001  
                                __pcstackBANK0 003F                                   ??___eecpymem 0072  
                          __end_of_EUSART_Read 049C                                      _analisaRx 06E5  
                                 ??___memcpyee 0072                         _PIN_MANAGER_Initialize 04B1  
                                     ?___eetoc 0070                                       ?___ctoee 0076  
                           __end_of___eecpymem 0543                                      _countName 007D  
                           __end_of___memcpyee 05C3         EUSART_SetErrorHandler@interruptHandler 0070  
                                    clear_ram0 044F                              _eusartRxLastError 003E  
                                   ?_analisaRx 0070                                       _PIR1bits 0011  
              ??_EUSART_SetFramingErrorHandler 0072              _EUSART_DefaultOverrunErrorHandler 0000  
                    recebeGuardaNome@countByte 007A                         recebeGuardaNome@nameRx 0020  
                       recebeGuardaNome@rxChar 0079                                    _EUSART_Read 048D  
                                    enviaMsg@i 0076                                   ??_enviaNomes 0078  
                                   _EECON1bits 0195                        ??_OSCILLATOR_Initialize 0070  
                          _EUSART_ErrorHandler 0035                               _recebeGuardaNome 05C3  
                           __end_of_enviaNomes 06E5                                       __ptext10 0515  
                                     __ptext11 049C                                       __ptext20 043D  
                                     __ptext12 0455                                       __ptext13 0480  
                                     __ptext14 0434                                       __ptext15 04B1  
                                     __ptext16 0474                                       __ptext17 04C9  
                                     __ptext18 0449                                       __ptext19 0443  
                                     _bufferRx 003C                                       _enviaMsg 04EB  
                      ?_EUSART_SetErrorHandler 0070                                    ??_analisaRx 007B  
EUSART_SetOverrunErrorHandler@interruptHandler 0070          __end_of_EUSART_SetFramingErrorHandler 0449  
                _EUSART_SetFramingErrorHandler 0443                                ___eecpymem@from 0070  
                              ___eecpymem@size 0071                                     _INTCONbits 000B  
                      ?_PIN_MANAGER_Initialize 0070                 __end_of_EUSART_SetErrorHandler 0443  
                               analisaRx@i_425 0047  EUSART_SetFramingErrorHandler@interruptHandler 0070  
                                __pstringtext1 0800                                  __pstringtext2 0832  
                                __pstringtext3 0858                                  __pstringtext4 087E  
                                __pstringtext5 08A2                                  __pstringtext6 08BE  
                                __pstringtext7 08D4                                  __pstringtext8 08E3  
                                ___eecpymem@cp 0074                                  ___eecpymem@to 0075  
                           EUSART_Write@txData 0070                 __end_of_PIN_MANAGER_Initialize 04C9  
                                   _STATUSbits 0003                                   ___eetoc@addr 0076  
                                 ___eetoc@data 0077  
