

Microchip MPLAB XC8 Assembler V2.46 build 20240104201356 
                                                                                               Wed Sep  4 20:38:26 2024

Microchip MPLAB XC8 C Compiler v2.46 (Free license) build 20240104201356 Og1 
     1                           	processor	16F1827
     2                           	pagewidth 120
     3                           	opt	flic
     4                           	psect	cinit,global,class=CODE,merge=1,delta=2
     5                           	psect	bssCOMMON,global,class=COMMON,space=1,delta=1,noexec
     6                           	psect	cstackCOMMON,global,class=COMMON,space=1,delta=1,noexec
     7                           	psect	maintext,global,class=CODE,merge=1,split=1,delta=2
     8                           	psect	text1,local,class=CODE,merge=1,delta=2
     9                           	psect	text2,local,class=CODE,merge=1,delta=2
    10                           	psect	text3,local,class=CODE,merge=1,delta=2
    11                           	psect	text4,local,class=CODE,merge=1,delta=2
    12                           	psect	text5,local,class=CODE,merge=1,delta=2
    13                           	psect	text6,local,class=CODE,merge=1,delta=2
    14                           	psect	text7,local,class=CODE,merge=1,delta=2
    15                           	psect	text8,local,class=CODE,merge=1,delta=2
    16                           	psect	intentry,global,class=CODE,delta=2
    17                           	psect	text10,local,class=CODE,merge=1,delta=2
    18                           	psect	text11,local,class=CODE,merge=1,delta=2
    19                           	psect	text12,local,class=CODE,merge=1,delta=2
    20                           	psect	text13,local,class=CODE,merge=1,delta=2
    21                           	psect	config,global,abs,ovrld,class=CONFIG,space=4,delta=2,noexec
    22                           	dabs	1,0x7E,2
    23     0000                     
    24                           ; Generated 07/09/2023 GMT
    25                           ; 
    26                           ; Copyright © 2023, Microchip Technology Inc. and its subsidiaries ("Microchip")
    27                           ; All rights reserved.
    28                           ; 
    29                           ; This software is developed by Microchip Technology Inc. and its subsidiaries ("Microch
      +                          ip").
    30                           ; 
    31                           ; Redistribution and use in source and binary forms, with or without modification, are
    32                           ; permitted provided that the following conditions are met:
    33                           ; 
    34                           ;     1. Redistributions of source code must retain the above copyright notice, this lis
      +                          t of
    35                           ;        conditions and the following disclaimer.
    36                           ; 
    37                           ;     2. Redistributions in binary form must reproduce the above copyright notice, this 
      +                          list
    38                           ;        of conditions and the following disclaimer in the documentation and/or other
    39                           ;        materials provided with the distribution. Publication is not required when
    40                           ;        this file is used in an embedded application.
    41                           ; 
    42                           ;     3. Microchip's name may not be used to endorse or promote products derived from th
      +                          is
    43                           ;        software without specific prior written permission.
    44                           ; 
    45                           ; THIS SOFTWARE IS PROVIDED BY MICROCHIP "AS IS" AND ANY EXPRESS OR IMPLIED WARRANTIES,
    46                           ; INCLUDING, BUT NOT LIMITED TO, THE IMPLIED WARRANTIES OF MERCHANTABILITY AND FITNESS F
      +                          OR
    47                           ; PURPOSE ARE DISCLAIMED.  IN NO EVENT SHALL MICROCHIP BE LIABLE FOR ANY DIRECT, INDIREC
      +                          T,
    48                           ; INCIDENTAL, SPECIAL, EXEMPLARY, OR CONSEQUENTIAL DAMAGES (INCLUDING BUT NOT LIMITED TO
    49                           ; PROCUREMENT OF SUBSTITUTE GOODS OR SERVICES; LOSS OF USE, DATA OR PROFITS; OR BUSINESS
    50                           ; INTERRUPTION) HOWSOEVER CAUSED AND ON ANY THEORY OF LIABILITY, WHETHER IN CONTRACT, ST
      +                          RICT
    51                           ; LIABILITY, OR TORT (INCLUDING NEGLIGENCE OR OTHERWISE) ARISING IN ANY WAY OUT OF THE U
      +                          SE OF
    52                           ; THIS SOFTWARE, EVEN IF ADVISED OF THE POSSIBILITY OF SUCH DAMAGE.
    53                           ; 
    54                           ; 
    55                           ; Code-generator required, PIC16F1827 Definitions
    56                           ; 
    57                           ; SFR Addresses
    58     0000                     	;# 
    59     0001                     	;# 
    60     0002                     	;# 
    61     0003                     	;# 
    62     0004                     	;# 
    63     0005                     	;# 
    64     0006                     	;# 
    65     0007                     	;# 
    66     0008                     	;# 
    67     0009                     	;# 
    68     000A                     	;# 
    69     000B                     	;# 
    70     000C                     	;# 
    71     000D                     	;# 
    72     0011                     	;# 
    73     0012                     	;# 
    74     0013                     	;# 
    75     0014                     	;# 
    76     0015                     	;# 
    77     0016                     	;# 
    78     0016                     	;# 
    79     0017                     	;# 
    80     0018                     	;# 
    81     0019                     	;# 
    82     001A                     	;# 
    83     001B                     	;# 
    84     001C                     	;# 
    85     001E                     	;# 
    86     001F                     	;# 
    87     008C                     	;# 
    88     008D                     	;# 
    89     0091                     	;# 
    90     0092                     	;# 
    91     0093                     	;# 
    92     0094                     	;# 
    93     0095                     	;# 
    94     0096                     	;# 
    95     0097                     	;# 
    96     0098                     	;# 
    97     0099                     	;# 
    98     009A                     	;# 
    99     009B                     	;# 
   100     009B                     	;# 
   101     009C                     	;# 
   102     009D                     	;# 
   103     009E                     	;# 
   104     010C                     	;# 
   105     010D                     	;# 
   106     0111                     	;# 
   107     0112                     	;# 
   108     0113                     	;# 
   109     0114                     	;# 
   110     0115                     	;# 
   111     0116                     	;# 
   112     0117                     	;# 
   113     0118                     	;# 
   114     0119                     	;# 
   115     011A                     	;# 
   116     011B                     	;# 
   117     011D                     	;# 
   118     011E                     	;# 
   119     018C                     	;# 
   120     018D                     	;# 
   121     0191                     	;# 
   122     0191                     	;# 
   123     0192                     	;# 
   124     0193                     	;# 
   125     0193                     	;# 
   126     0193                     	;# 
   127     0194                     	;# 
   128     0195                     	;# 
   129     0196                     	;# 
   130     0199                     	;# 
   131     019A                     	;# 
   132     019B                     	;# 
   133     019B                     	;# 
   134     019B                     	;# 
   135     019B                     	;# 
   136     019C                     	;# 
   137     019C                     	;# 
   138     019D                     	;# 
   139     019E                     	;# 
   140     019F                     	;# 
   141     020C                     	;# 
   142     020D                     	;# 
   143     0211                     	;# 
   144     0211                     	;# 
   145     0212                     	;# 
   146     0212                     	;# 
   147     0213                     	;# 
   148     0213                     	;# 
   149     0214                     	;# 
   150     0214                     	;# 
   151     0215                     	;# 
   152     0215                     	;# 
   153     0215                     	;# 
   154     0216                     	;# 
   155     0216                     	;# 
   156     0217                     	;# 
   157     0217                     	;# 
   158     0219                     	;# 
   159     021A                     	;# 
   160     021B                     	;# 
   161     021C                     	;# 
   162     021D                     	;# 
   163     021E                     	;# 
   164     021F                     	;# 
   165     0291                     	;# 
   166     0291                     	;# 
   167     0292                     	;# 
   168     0293                     	;# 
   169     0294                     	;# 
   170     0295                     	;# 
   171     0295                     	;# 
   172     0296                     	;# 
   173     0298                     	;# 
   174     0298                     	;# 
   175     0299                     	;# 
   176     029A                     	;# 
   177     029B                     	;# 
   178     029C                     	;# 
   179     029C                     	;# 
   180     029D                     	;# 
   181     029E                     	;# 
   182     029E                     	;# 
   183     0311                     	;# 
   184     0311                     	;# 
   185     0312                     	;# 
   186     0313                     	;# 
   187     0318                     	;# 
   188     0318                     	;# 
   189     0319                     	;# 
   190     031A                     	;# 
   191     0394                     	;# 
   192     0395                     	;# 
   193     0396                     	;# 
   194     039A                     	;# 
   195     039C                     	;# 
   196     039D                     	;# 
   197     039E                     	;# 
   198     039F                     	;# 
   199     0415                     	;# 
   200     0416                     	;# 
   201     0417                     	;# 
   202     041C                     	;# 
   203     041D                     	;# 
   204     041E                     	;# 
   205     0FE4                     	;# 
   206     0FE5                     	;# 
   207     0FE6                     	;# 
   208     0FE7                     	;# 
   209     0FE8                     	;# 
   210     0FE9                     	;# 
   211     0FEA                     	;# 
   212     0FEB                     	;# 
   213     0FED                     	;# 
   214     0FEE                     	;# 
   215     0FEF                     	;# 
   216     0000                     	;# 
   217     0001                     	;# 
   218     0002                     	;# 
   219     0003                     	;# 
   220     0004                     	;# 
   221     0005                     	;# 
   222     0006                     	;# 
   223     0007                     	;# 
   224     0008                     	;# 
   225     0009                     	;# 
   226     000A                     	;# 
   227     000B                     	;# 
   228     000C                     	;# 
   229     000D                     	;# 
   230     0011                     	;# 
   231     0012                     	;# 
   232     0013                     	;# 
   233     0014                     	;# 
   234     0015                     	;# 
   235     0016                     	;# 
   236     0016                     	;# 
   237     0017                     	;# 
   238     0018                     	;# 
   239     0019                     	;# 
   240     001A                     	;# 
   241     001B                     	;# 
   242     001C                     	;# 
   243     001E                     	;# 
   244     001F                     	;# 
   245     008C                     	;# 
   246     008D                     	;# 
   247     0091                     	;# 
   248     0092                     	;# 
   249     0093                     	;# 
   250     0094                     	;# 
   251     0095                     	;# 
   252     0096                     	;# 
   253     0097                     	;# 
   254     0098                     	;# 
   255     0099                     	;# 
   256     009A                     	;# 
   257     009B                     	;# 
   258     009B                     	;# 
   259     009C                     	;# 
   260     009D                     	;# 
   261     009E                     	;# 
   262     010C                     	;# 
   263     010D                     	;# 
   264     0111                     	;# 
   265     0112                     	;# 
   266     0113                     	;# 
   267     0114                     	;# 
   268     0115                     	;# 
   269     0116                     	;# 
   270     0117                     	;# 
   271     0118                     	;# 
   272     0119                     	;# 
   273     011A                     	;# 
   274     011B                     	;# 
   275     011D                     	;# 
   276     011E                     	;# 
   277     018C                     	;# 
   278     018D                     	;# 
   279     0191                     	;# 
   280     0191                     	;# 
   281     0192                     	;# 
   282     0193                     	;# 
   283     0193                     	;# 
   284     0193                     	;# 
   285     0194                     	;# 
   286     0195                     	;# 
   287     0196                     	;# 
   288     0199                     	;# 
   289     019A                     	;# 
   290     019B                     	;# 
   291     019B                     	;# 
   292     019B                     	;# 
   293     019B                     	;# 
   294     019C                     	;# 
   295     019C                     	;# 
   296     019D                     	;# 
   297     019E                     	;# 
   298     019F                     	;# 
   299     020C                     	;# 
   300     020D                     	;# 
   301     0211                     	;# 
   302     0211                     	;# 
   303     0212                     	;# 
   304     0212                     	;# 
   305     0213                     	;# 
   306     0213                     	;# 
   307     0214                     	;# 
   308     0214                     	;# 
   309     0215                     	;# 
   310     0215                     	;# 
   311     0215                     	;# 
   312     0216                     	;# 
   313     0216                     	;# 
   314     0217                     	;# 
   315     0217                     	;# 
   316     0219                     	;# 
   317     021A                     	;# 
   318     021B                     	;# 
   319     021C                     	;# 
   320     021D                     	;# 
   321     021E                     	;# 
   322     021F                     	;# 
   323     0291                     	;# 
   324     0291                     	;# 
   325     0292                     	;# 
   326     0293                     	;# 
   327     0294                     	;# 
   328     0295                     	;# 
   329     0295                     	;# 
   330     0296                     	;# 
   331     0298                     	;# 
   332     0298                     	;# 
   333     0299                     	;# 
   334     029A                     	;# 
   335     029B                     	;# 
   336     029C                     	;# 
   337     029C                     	;# 
   338     029D                     	;# 
   339     029E                     	;# 
   340     029E                     	;# 
   341     0311                     	;# 
   342     0311                     	;# 
   343     0312                     	;# 
   344     0313                     	;# 
   345     0318                     	;# 
   346     0318                     	;# 
   347     0319                     	;# 
   348     031A                     	;# 
   349     0394                     	;# 
   350     0395                     	;# 
   351     0396                     	;# 
   352     039A                     	;# 
   353     039C                     	;# 
   354     039D                     	;# 
   355     039E                     	;# 
   356     039F                     	;# 
   357     0415                     	;# 
   358     0416                     	;# 
   359     0417                     	;# 
   360     041C                     	;# 
   361     041D                     	;# 
   362     041E                     	;# 
   363     0FE4                     	;# 
   364     0FE5                     	;# 
   365     0FE6                     	;# 
   366     0FE7                     	;# 
   367     0FE8                     	;# 
   368     0FE9                     	;# 
   369     0FEA                     	;# 
   370     0FEB                     	;# 
   371     0FED                     	;# 
   372     0FEE                     	;# 
   373     0FEF                     	;# 
   374     0000                     	;# 
   375     0001                     	;# 
   376     0002                     	;# 
   377     0003                     	;# 
   378     0004                     	;# 
   379     0005                     	;# 
   380     0006                     	;# 
   381     0007                     	;# 
   382     0008                     	;# 
   383     0009                     	;# 
   384     000A                     	;# 
   385     000B                     	;# 
   386     000C                     	;# 
   387     000D                     	;# 
   388     0011                     	;# 
   389     0012                     	;# 
   390     0013                     	;# 
   391     0014                     	;# 
   392     0015                     	;# 
   393     0016                     	;# 
   394     0016                     	;# 
   395     0017                     	;# 
   396     0018                     	;# 
   397     0019                     	;# 
   398     001A                     	;# 
   399     001B                     	;# 
   400     001C                     	;# 
   401     001E                     	;# 
   402     001F                     	;# 
   403     008C                     	;# 
   404     008D                     	;# 
   405     0091                     	;# 
   406     0092                     	;# 
   407     0093                     	;# 
   408     0094                     	;# 
   409     0095                     	;# 
   410     0096                     	;# 
   411     0097                     	;# 
   412     0098                     	;# 
   413     0099                     	;# 
   414     009A                     	;# 
   415     009B                     	;# 
   416     009B                     	;# 
   417     009C                     	;# 
   418     009D                     	;# 
   419     009E                     	;# 
   420     010C                     	;# 
   421     010D                     	;# 
   422     0111                     	;# 
   423     0112                     	;# 
   424     0113                     	;# 
   425     0114                     	;# 
   426     0115                     	;# 
   427     0116                     	;# 
   428     0117                     	;# 
   429     0118                     	;# 
   430     0119                     	;# 
   431     011A                     	;# 
   432     011B                     	;# 
   433     011D                     	;# 
   434     011E                     	;# 
   435     018C                     	;# 
   436     018D                     	;# 
   437     0191                     	;# 
   438     0191                     	;# 
   439     0192                     	;# 
   440     0193                     	;# 
   441     0193                     	;# 
   442     0193                     	;# 
   443     0194                     	;# 
   444     0195                     	;# 
   445     0196                     	;# 
   446     0199                     	;# 
   447     019A                     	;# 
   448     019B                     	;# 
   449     019B                     	;# 
   450     019B                     	;# 
   451     019B                     	;# 
   452     019C                     	;# 
   453     019C                     	;# 
   454     019D                     	;# 
   455     019E                     	;# 
   456     019F                     	;# 
   457     020C                     	;# 
   458     020D                     	;# 
   459     0211                     	;# 
   460     0211                     	;# 
   461     0212                     	;# 
   462     0212                     	;# 
   463     0213                     	;# 
   464     0213                     	;# 
   465     0214                     	;# 
   466     0214                     	;# 
   467     0215                     	;# 
   468     0215                     	;# 
   469     0215                     	;# 
   470     0216                     	;# 
   471     0216                     	;# 
   472     0217                     	;# 
   473     0217                     	;# 
   474     0219                     	;# 
   475     021A                     	;# 
   476     021B                     	;# 
   477     021C                     	;# 
   478     021D                     	;# 
   479     021E                     	;# 
   480     021F                     	;# 
   481     0291                     	;# 
   482     0291                     	;# 
   483     0292                     	;# 
   484     0293                     	;# 
   485     0294                     	;# 
   486     0295                     	;# 
   487     0295                     	;# 
   488     0296                     	;# 
   489     0298                     	;# 
   490     0298                     	;# 
   491     0299                     	;# 
   492     029A                     	;# 
   493     029B                     	;# 
   494     029C                     	;# 
   495     029C                     	;# 
   496     029D                     	;# 
   497     029E                     	;# 
   498     029E                     	;# 
   499     0311                     	;# 
   500     0311                     	;# 
   501     0312                     	;# 
   502     0313                     	;# 
   503     0318                     	;# 
   504     0318                     	;# 
   505     0319                     	;# 
   506     031A                     	;# 
   507     0394                     	;# 
   508     0395                     	;# 
   509     0396                     	;# 
   510     039A                     	;# 
   511     039C                     	;# 
   512     039D                     	;# 
   513     039E                     	;# 
   514     039F                     	;# 
   515     0415                     	;# 
   516     0416                     	;# 
   517     0417                     	;# 
   518     041C                     	;# 
   519     041D                     	;# 
   520     041E                     	;# 
   521     0FE4                     	;# 
   522     0FE5                     	;# 
   523     0FE6                     	;# 
   524     0FE7                     	;# 
   525     0FE8                     	;# 
   526     0FE9                     	;# 
   527     0FEA                     	;# 
   528     0FEB                     	;# 
   529     0FED                     	;# 
   530     0FEE                     	;# 
   531     0FEF                     	;# 
   532     0000                     	;# 
   533     0001                     	;# 
   534     0002                     	;# 
   535     0003                     	;# 
   536     0004                     	;# 
   537     0005                     	;# 
   538     0006                     	;# 
   539     0007                     	;# 
   540     0008                     	;# 
   541     0009                     	;# 
   542     000A                     	;# 
   543     000B                     	;# 
   544     000C                     	;# 
   545     000D                     	;# 
   546     0011                     	;# 
   547     0012                     	;# 
   548     0013                     	;# 
   549     0014                     	;# 
   550     0015                     	;# 
   551     0016                     	;# 
   552     0016                     	;# 
   553     0017                     	;# 
   554     0018                     	;# 
   555     0019                     	;# 
   556     001A                     	;# 
   557     001B                     	;# 
   558     001C                     	;# 
   559     001E                     	;# 
   560     001F                     	;# 
   561     008C                     	;# 
   562     008D                     	;# 
   563     0091                     	;# 
   564     0092                     	;# 
   565     0093                     	;# 
   566     0094                     	;# 
   567     0095                     	;# 
   568     0096                     	;# 
   569     0097                     	;# 
   570     0098                     	;# 
   571     0099                     	;# 
   572     009A                     	;# 
   573     009B                     	;# 
   574     009B                     	;# 
   575     009C                     	;# 
   576     009D                     	;# 
   577     009E                     	;# 
   578     010C                     	;# 
   579     010D                     	;# 
   580     0111                     	;# 
   581     0112                     	;# 
   582     0113                     	;# 
   583     0114                     	;# 
   584     0115                     	;# 
   585     0116                     	;# 
   586     0117                     	;# 
   587     0118                     	;# 
   588     0119                     	;# 
   589     011A                     	;# 
   590     011B                     	;# 
   591     011D                     	;# 
   592     011E                     	;# 
   593     018C                     	;# 
   594     018D                     	;# 
   595     0191                     	;# 
   596     0191                     	;# 
   597     0192                     	;# 
   598     0193                     	;# 
   599     0193                     	;# 
   600     0193                     	;# 
   601     0194                     	;# 
   602     0195                     	;# 
   603     0196                     	;# 
   604     0199                     	;# 
   605     019A                     	;# 
   606     019B                     	;# 
   607     019B                     	;# 
   608     019B                     	;# 
   609     019B                     	;# 
   610     019C                     	;# 
   611     019C                     	;# 
   612     019D                     	;# 
   613     019E                     	;# 
   614     019F                     	;# 
   615     020C                     	;# 
   616     020D                     	;# 
   617     0211                     	;# 
   618     0211                     	;# 
   619     0212                     	;# 
   620     0212                     	;# 
   621     0213                     	;# 
   622     0213                     	;# 
   623     0214                     	;# 
   624     0214                     	;# 
   625     0215                     	;# 
   626     0215                     	;# 
   627     0215                     	;# 
   628     0216                     	;# 
   629     0216                     	;# 
   630     0217                     	;# 
   631     0217                     	;# 
   632     0219                     	;# 
   633     021A                     	;# 
   634     021B                     	;# 
   635     021C                     	;# 
   636     021D                     	;# 
   637     021E                     	;# 
   638     021F                     	;# 
   639     0291                     	;# 
   640     0291                     	;# 
   641     0292                     	;# 
   642     0293                     	;# 
   643     0294                     	;# 
   644     0295                     	;# 
   645     0295                     	;# 
   646     0296                     	;# 
   647     0298                     	;# 
   648     0298                     	;# 
   649     0299                     	;# 
   650     029A                     	;# 
   651     029B                     	;# 
   652     029C                     	;# 
   653     029C                     	;# 
   654     029D                     	;# 
   655     029E                     	;# 
   656     029E                     	;# 
   657     0311                     	;# 
   658     0311                     	;# 
   659     0312                     	;# 
   660     0313                     	;# 
   661     0318                     	;# 
   662     0318                     	;# 
   663     0319                     	;# 
   664     031A                     	;# 
   665     0394                     	;# 
   666     0395                     	;# 
   667     0396                     	;# 
   668     039A                     	;# 
   669     039C                     	;# 
   670     039D                     	;# 
   671     039E                     	;# 
   672     039F                     	;# 
   673     0415                     	;# 
   674     0416                     	;# 
   675     0417                     	;# 
   676     041C                     	;# 
   677     041D                     	;# 
   678     041E                     	;# 
   679     0FE4                     	;# 
   680     0FE5                     	;# 
   681     0FE6                     	;# 
   682     0FE7                     	;# 
   683     0FE8                     	;# 
   684     0FE9                     	;# 
   685     0FEA                     	;# 
   686     0FEB                     	;# 
   687     0FED                     	;# 
   688     0FEE                     	;# 
   689     0FEF                     	;# 
   690     0000                     	;# 
   691     0001                     	;# 
   692     0002                     	;# 
   693     0003                     	;# 
   694     0004                     	;# 
   695     0005                     	;# 
   696     0006                     	;# 
   697     0007                     	;# 
   698     0008                     	;# 
   699     0009                     	;# 
   700     000A                     	;# 
   701     000B                     	;# 
   702     000C                     	;# 
   703     000D                     	;# 
   704     0011                     	;# 
   705     0012                     	;# 
   706     0013                     	;# 
   707     0014                     	;# 
   708     0015                     	;# 
   709     0016                     	;# 
   710     0016                     	;# 
   711     0017                     	;# 
   712     0018                     	;# 
   713     0019                     	;# 
   714     001A                     	;# 
   715     001B                     	;# 
   716     001C                     	;# 
   717     001E                     	;# 
   718     001F                     	;# 
   719     008C                     	;# 
   720     008D                     	;# 
   721     0091                     	;# 
   722     0092                     	;# 
   723     0093                     	;# 
   724     0094                     	;# 
   725     0095                     	;# 
   726     0096                     	;# 
   727     0097                     	;# 
   728     0098                     	;# 
   729     0099                     	;# 
   730     009A                     	;# 
   731     009B                     	;# 
   732     009B                     	;# 
   733     009C                     	;# 
   734     009D                     	;# 
   735     009E                     	;# 
   736     010C                     	;# 
   737     010D                     	;# 
   738     0111                     	;# 
   739     0112                     	;# 
   740     0113                     	;# 
   741     0114                     	;# 
   742     0115                     	;# 
   743     0116                     	;# 
   744     0117                     	;# 
   745     0118                     	;# 
   746     0119                     	;# 
   747     011A                     	;# 
   748     011B                     	;# 
   749     011D                     	;# 
   750     011E                     	;# 
   751     018C                     	;# 
   752     018D                     	;# 
   753     0191                     	;# 
   754     0191                     	;# 
   755     0192                     	;# 
   756     0193                     	;# 
   757     0193                     	;# 
   758     0193                     	;# 
   759     0194                     	;# 
   760     0195                     	;# 
   761     0196                     	;# 
   762     0199                     	;# 
   763     019A                     	;# 
   764     019B                     	;# 
   765     019B                     	;# 
   766     019B                     	;# 
   767     019B                     	;# 
   768     019C                     	;# 
   769     019C                     	;# 
   770     019D                     	;# 
   771     019E                     	;# 
   772     019F                     	;# 
   773     020C                     	;# 
   774     020D                     	;# 
   775     0211                     	;# 
   776     0211                     	;# 
   777     0212                     	;# 
   778     0212                     	;# 
   779     0213                     	;# 
   780     0213                     	;# 
   781     0214                     	;# 
   782     0214                     	;# 
   783     0215                     	;# 
   784     0215                     	;# 
   785     0215                     	;# 
   786     0216                     	;# 
   787     0216                     	;# 
   788     0217                     	;# 
   789     0217                     	;# 
   790     0219                     	;# 
   791     021A                     	;# 
   792     021B                     	;# 
   793     021C                     	;# 
   794     021D                     	;# 
   795     021E                     	;# 
   796     021F                     	;# 
   797     0291                     	;# 
   798     0291                     	;# 
   799     0292                     	;# 
   800     0293                     	;# 
   801     0294                     	;# 
   802     0295                     	;# 
   803     0295                     	;# 
   804     0296                     	;# 
   805     0298                     	;# 
   806     0298                     	;# 
   807     0299                     	;# 
   808     029A                     	;# 
   809     029B                     	;# 
   810     029C                     	;# 
   811     029C                     	;# 
   812     029D                     	;# 
   813     029E                     	;# 
   814     029E                     	;# 
   815     0311                     	;# 
   816     0311                     	;# 
   817     0312                     	;# 
   818     0313                     	;# 
   819     0318                     	;# 
   820     0318                     	;# 
   821     0319                     	;# 
   822     031A                     	;# 
   823     0394                     	;# 
   824     0395                     	;# 
   825     0396                     	;# 
   826     039A                     	;# 
   827     039C                     	;# 
   828     039D                     	;# 
   829     039E                     	;# 
   830     039F                     	;# 
   831     0415                     	;# 
   832     0416                     	;# 
   833     0417                     	;# 
   834     041C                     	;# 
   835     041D                     	;# 
   836     041E                     	;# 
   837     0FE4                     	;# 
   838     0FE5                     	;# 
   839     0FE6                     	;# 
   840     0FE7                     	;# 
   841     0FE8                     	;# 
   842     0FE9                     	;# 
   843     0FEA                     	;# 
   844     0FEB                     	;# 
   845     0FED                     	;# 
   846     0FEE                     	;# 
   847     0FEF                     	;# 
   848     0000                     	;# 
   849     0001                     	;# 
   850     0002                     	;# 
   851     0003                     	;# 
   852     0004                     	;# 
   853     0005                     	;# 
   854     0006                     	;# 
   855     0007                     	;# 
   856     0008                     	;# 
   857     0009                     	;# 
   858     000A                     	;# 
   859     000B                     	;# 
   860     000C                     	;# 
   861     000D                     	;# 
   862     0011                     	;# 
   863     0012                     	;# 
   864     0013                     	;# 
   865     0014                     	;# 
   866     0015                     	;# 
   867     0016                     	;# 
   868     0016                     	;# 
   869     0017                     	;# 
   870     0018                     	;# 
   871     0019                     	;# 
   872     001A                     	;# 
   873     001B                     	;# 
   874     001C                     	;# 
   875     001E                     	;# 
   876     001F                     	;# 
   877     008C                     	;# 
   878     008D                     	;# 
   879     0091                     	;# 
   880     0092                     	;# 
   881     0093                     	;# 
   882     0094                     	;# 
   883     0095                     	;# 
   884     0096                     	;# 
   885     0097                     	;# 
   886     0098                     	;# 
   887     0099                     	;# 
   888     009A                     	;# 
   889     009B                     	;# 
   890     009B                     	;# 
   891     009C                     	;# 
   892     009D                     	;# 
   893     009E                     	;# 
   894     010C                     	;# 
   895     010D                     	;# 
   896     0111                     	;# 
   897     0112                     	;# 
   898     0113                     	;# 
   899     0114                     	;# 
   900     0115                     	;# 
   901     0116                     	;# 
   902     0117                     	;# 
   903     0118                     	;# 
   904     0119                     	;# 
   905     011A                     	;# 
   906     011B                     	;# 
   907     011D                     	;# 
   908     011E                     	;# 
   909     018C                     	;# 
   910     018D                     	;# 
   911     0191                     	;# 
   912     0191                     	;# 
   913     0192                     	;# 
   914     0193                     	;# 
   915     0193                     	;# 
   916     0193                     	;# 
   917     0194                     	;# 
   918     0195                     	;# 
   919     0196                     	;# 
   920     0199                     	;# 
   921     019A                     	;# 
   922     019B                     	;# 
   923     019B                     	;# 
   924     019B                     	;# 
   925     019B                     	;# 
   926     019C                     	;# 
   927     019C                     	;# 
   928     019D                     	;# 
   929     019E                     	;# 
   930     019F                     	;# 
   931     020C                     	;# 
   932     020D                     	;# 
   933     0211                     	;# 
   934     0211                     	;# 
   935     0212                     	;# 
   936     0212                     	;# 
   937     0213                     	;# 
   938     0213                     	;# 
   939     0214                     	;# 
   940     0214                     	;# 
   941     0215                     	;# 
   942     0215                     	;# 
   943     0215                     	;# 
   944     0216                     	;# 
   945     0216                     	;# 
   946     0217                     	;# 
   947     0217                     	;# 
   948     0219                     	;# 
   949     021A                     	;# 
   950     021B                     	;# 
   951     021C                     	;# 
   952     021D                     	;# 
   953     021E                     	;# 
   954     021F                     	;# 
   955     0291                     	;# 
   956     0291                     	;# 
   957     0292                     	;# 
   958     0293                     	;# 
   959     0294                     	;# 
   960     0295                     	;# 
   961     0295                     	;# 
   962     0296                     	;# 
   963     0298                     	;# 
   964     0298                     	;# 
   965     0299                     	;# 
   966     029A                     	;# 
   967     029B                     	;# 
   968     029C                     	;# 
   969     029C                     	;# 
   970     029D                     	;# 
   971     029E                     	;# 
   972     029E                     	;# 
   973     0311                     	;# 
   974     0311                     	;# 
   975     0312                     	;# 
   976     0313                     	;# 
   977     0318                     	;# 
   978     0318                     	;# 
   979     0319                     	;# 
   980     031A                     	;# 
   981     0394                     	;# 
   982     0395                     	;# 
   983     0396                     	;# 
   984     039A                     	;# 
   985     039C                     	;# 
   986     039D                     	;# 
   987     039E                     	;# 
   988     039F                     	;# 
   989     0415                     	;# 
   990     0416                     	;# 
   991     0417                     	;# 
   992     041C                     	;# 
   993     041D                     	;# 
   994     041E                     	;# 
   995     0FE4                     	;# 
   996     0FE5                     	;# 
   997     0FE6                     	;# 
   998     0FE7                     	;# 
   999     0FE8                     	;# 
  1000     0FE9                     	;# 
  1001     0FEA                     	;# 
  1002     0FEB                     	;# 
  1003     0FED                     	;# 
  1004     0FEE                     	;# 
  1005     0FEF                     	;# 
  1006     0000                     	;# 
  1007     0001                     	;# 
  1008     0002                     	;# 
  1009     0003                     	;# 
  1010     0004                     	;# 
  1011     0005                     	;# 
  1012     0006                     	;# 
  1013     0007                     	;# 
  1014     0008                     	;# 
  1015     0009                     	;# 
  1016     000A                     	;# 
  1017     000B                     	;# 
  1018     000C                     	;# 
  1019     000D                     	;# 
  1020     0011                     	;# 
  1021     0012                     	;# 
  1022     0013                     	;# 
  1023     0014                     	;# 
  1024     0015                     	;# 
  1025     0016                     	;# 
  1026     0016                     	;# 
  1027     0017                     	;# 
  1028     0018                     	;# 
  1029     0019                     	;# 
  1030     001A                     	;# 
  1031     001B                     	;# 
  1032     001C                     	;# 
  1033     001E                     	;# 
  1034     001F                     	;# 
  1035     008C                     	;# 
  1036     008D                     	;# 
  1037     0091                     	;# 
  1038     0092                     	;# 
  1039     0093                     	;# 
  1040     0094                     	;# 
  1041     0095                     	;# 
  1042     0096                     	;# 
  1043     0097                     	;# 
  1044     0098                     	;# 
  1045     0099                     	;# 
  1046     009A                     	;# 
  1047     009B                     	;# 
  1048     009B                     	;# 
  1049     009C                     	;# 
  1050     009D                     	;# 
  1051     009E                     	;# 
  1052     010C                     	;# 
  1053     010D                     	;# 
  1054     0111                     	;# 
  1055     0112                     	;# 
  1056     0113                     	;# 
  1057     0114                     	;# 
  1058     0115                     	;# 
  1059     0116                     	;# 
  1060     0117                     	;# 
  1061     0118                     	;# 
  1062     0119                     	;# 
  1063     011A                     	;# 
  1064     011B                     	;# 
  1065     011D                     	;# 
  1066     011E                     	;# 
  1067     018C                     	;# 
  1068     018D                     	;# 
  1069     0191                     	;# 
  1070     0191                     	;# 
  1071     0192                     	;# 
  1072     0193                     	;# 
  1073     0193                     	;# 
  1074     0193                     	;# 
  1075     0194                     	;# 
  1076     0195                     	;# 
  1077     0196                     	;# 
  1078     0199                     	;# 
  1079     019A                     	;# 
  1080     019B                     	;# 
  1081     019B                     	;# 
  1082     019B                     	;# 
  1083     019B                     	;# 
  1084     019C                     	;# 
  1085     019C                     	;# 
  1086     019D                     	;# 
  1087     019E                     	;# 
  1088     019F                     	;# 
  1089     020C                     	;# 
  1090     020D                     	;# 
  1091     0211                     	;# 
  1092     0211                     	;# 
  1093     0212                     	;# 
  1094     0212                     	;# 
  1095     0213                     	;# 
  1096     0213                     	;# 
  1097     0214                     	;# 
  1098     0214                     	;# 
  1099     0215                     	;# 
  1100     0215                     	;# 
  1101     0215                     	;# 
  1102     0216                     	;# 
  1103     0216                     	;# 
  1104     0217                     	;# 
  1105     0217                     	;# 
  1106     0219                     	;# 
  1107     021A                     	;# 
  1108     021B                     	;# 
  1109     021C                     	;# 
  1110     021D                     	;# 
  1111     021E                     	;# 
  1112     021F                     	;# 
  1113     0291                     	;# 
  1114     0291                     	;# 
  1115     0292                     	;# 
  1116     0293                     	;# 
  1117     0294                     	;# 
  1118     0295                     	;# 
  1119     0295                     	;# 
  1120     0296                     	;# 
  1121     0298                     	;# 
  1122     0298                     	;# 
  1123     0299                     	;# 
  1124     029A                     	;# 
  1125     029B                     	;# 
  1126     029C                     	;# 
  1127     029C                     	;# 
  1128     029D                     	;# 
  1129     029E                     	;# 
  1130     029E                     	;# 
  1131     0311                     	;# 
  1132     0311                     	;# 
  1133     0312                     	;# 
  1134     0313                     	;# 
  1135     0318                     	;# 
  1136     0318                     	;# 
  1137     0319                     	;# 
  1138     031A                     	;# 
  1139     0394                     	;# 
  1140     0395                     	;# 
  1141     0396                     	;# 
  1142     039A                     	;# 
  1143     039C                     	;# 
  1144     039D                     	;# 
  1145     039E                     	;# 
  1146     039F                     	;# 
  1147     0415                     	;# 
  1148     0416                     	;# 
  1149     0417                     	;# 
  1150     041C                     	;# 
  1151     041D                     	;# 
  1152     041E                     	;# 
  1153     0FE4                     	;# 
  1154     0FE5                     	;# 
  1155     0FE6                     	;# 
  1156     0FE7                     	;# 
  1157     0FE8                     	;# 
  1158     0FE9                     	;# 
  1159     0FEA                     	;# 
  1160     0FEB                     	;# 
  1161     0FED                     	;# 
  1162     0FEE                     	;# 
  1163     0FEF                     	;# 
  1164     0000                     	;# 
  1165     0001                     	;# 
  1166     0002                     	;# 
  1167     0003                     	;# 
  1168     0004                     	;# 
  1169     0005                     	;# 
  1170     0006                     	;# 
  1171     0007                     	;# 
  1172     0008                     	;# 
  1173     0009                     	;# 
  1174     000A                     	;# 
  1175     000B                     	;# 
  1176     000C                     	;# 
  1177     000D                     	;# 
  1178     0011                     	;# 
  1179     0012                     	;# 
  1180     0013                     	;# 
  1181     0014                     	;# 
  1182     0015                     	;# 
  1183     0016                     	;# 
  1184     0016                     	;# 
  1185     0017                     	;# 
  1186     0018                     	;# 
  1187     0019                     	;# 
  1188     001A                     	;# 
  1189     001B                     	;# 
  1190     001C                     	;# 
  1191     001E                     	;# 
  1192     001F                     	;# 
  1193     008C                     	;# 
  1194     008D                     	;# 
  1195     0091                     	;# 
  1196     0092                     	;# 
  1197     0093                     	;# 
  1198     0094                     	;# 
  1199     0095                     	;# 
  1200     0096                     	;# 
  1201     0097                     	;# 
  1202     0098                     	;# 
  1203     0099                     	;# 
  1204     009A                     	;# 
  1205     009B                     	;# 
  1206     009B                     	;# 
  1207     009C                     	;# 
  1208     009D                     	;# 
  1209     009E                     	;# 
  1210     010C                     	;# 
  1211     010D                     	;# 
  1212     0111                     	;# 
  1213     0112                     	;# 
  1214     0113                     	;# 
  1215     0114                     	;# 
  1216     0115                     	;# 
  1217     0116                     	;# 
  1218     0117                     	;# 
  1219     0118                     	;# 
  1220     0119                     	;# 
  1221     011A                     	;# 
  1222     011B                     	;# 
  1223     011D                     	;# 
  1224     011E                     	;# 
  1225     018C                     	;# 
  1226     018D                     	;# 
  1227     0191                     	;# 
  1228     0191                     	;# 
  1229     0192                     	;# 
  1230     0193                     	;# 
  1231     0193                     	;# 
  1232     0193                     	;# 
  1233     0194                     	;# 
  1234     0195                     	;# 
  1235     0196                     	;# 
  1236     0199                     	;# 
  1237     019A                     	;# 
  1238     019B                     	;# 
  1239     019B                     	;# 
  1240     019B                     	;# 
  1241     019B                     	;# 
  1242     019C                     	;# 
  1243     019C                     	;# 
  1244     019D                     	;# 
  1245     019E                     	;# 
  1246     019F                     	;# 
  1247     020C                     	;# 
  1248     020D                     	;# 
  1249     0211                     	;# 
  1250     0211                     	;# 
  1251     0212                     	;# 
  1252     0212                     	;# 
  1253     0213                     	;# 
  1254     0213                     	;# 
  1255     0214                     	;# 
  1256     0214                     	;# 
  1257     0215                     	;# 
  1258     0215                     	;# 
  1259     0215                     	;# 
  1260     0216                     	;# 
  1261     0216                     	;# 
  1262     0217                     	;# 
  1263     0217                     	;# 
  1264     0219                     	;# 
  1265     021A                     	;# 
  1266     021B                     	;# 
  1267     021C                     	;# 
  1268     021D                     	;# 
  1269     021E                     	;# 
  1270     021F                     	;# 
  1271     0291                     	;# 
  1272     0291                     	;# 
  1273     0292                     	;# 
  1274     0293                     	;# 
  1275     0294                     	;# 
  1276     0295                     	;# 
  1277     0295                     	;# 
  1278     0296                     	;# 
  1279     0298                     	;# 
  1280     0298                     	;# 
  1281     0299                     	;# 
  1282     029A                     	;# 
  1283     029B                     	;# 
  1284     029C                     	;# 
  1285     029C                     	;# 
  1286     029D                     	;# 
  1287     029E                     	;# 
  1288     029E                     	;# 
  1289     0311                     	;# 
  1290     0311                     	;# 
  1291     0312                     	;# 
  1292     0313                     	;# 
  1293     0318                     	;# 
  1294     0318                     	;# 
  1295     0319                     	;# 
  1296     031A                     	;# 
  1297     0394                     	;# 
  1298     0395                     	;# 
  1299     0396                     	;# 
  1300     039A                     	;# 
  1301     039C                     	;# 
  1302     039D                     	;# 
  1303     039E                     	;# 
  1304     039F                     	;# 
  1305     0415                     	;# 
  1306     0416                     	;# 
  1307     0417                     	;# 
  1308     041C                     	;# 
  1309     041D                     	;# 
  1310     041E                     	;# 
  1311     0FE4                     	;# 
  1312     0FE5                     	;# 
  1313     0FE6                     	;# 
  1314     0FE7                     	;# 
  1315     0FE8                     	;# 
  1316     0FE9                     	;# 
  1317     0FEA                     	;# 
  1318     0FEB                     	;# 
  1319     0FED                     	;# 
  1320     0FEE                     	;# 
  1321     0FEF                     	;# 
  1322                           
  1323 ;; Function _INT_DefaultInterruptHandler is unused but had its address taken
  1324     000B                     _INTCONbits	set	11
  1325     0012                     _PIR2bits	set	18
  1326     0098                     _OSCTUNE	set	152
  1327     0099                     _OSCCON	set	153
  1328     0095                     _OPTION_REGbits	set	149
  1329     008D                     _TRISB	set	141
  1330     008C                     _TRISA	set	140
  1331     0092                     _PIE2bits	set	146
  1332     010C                     _LATAbits	set	268
  1333     0116                     _BORCON	set	278
  1334     010D                     _LATB	set	269
  1335     010C                     _LATA	set	268
  1336     0117                     _FVRCONbits	set	279
  1337     0117                     _FVRCON	set	279
  1338     0115                     _CMOUTbits	set	277
  1339     0111                     _CM1CON0bits	set	273
  1340     0112                     _CM1CON1	set	274
  1341     0111                     _CM1CON0	set	273
  1342     018D                     _ANSELB	set	397
  1343     018C                     _ANSELA	set	396
  1344     020D                     _WPUB	set	525
  1345     020C                     _WPUA	set	524
  1346     0396                     _IOCBF	set	918
  1347     0395                     _IOCBN	set	917
  1348     0394                     _IOCBP	set	916
  1349                           
  1350                           	psect	cinit
  1351     001B                     start_initialization:	
  1352                           ; #config settings
  1353                           
  1354     001B                     __initialization:
  1355                           
  1356                           ; Clear objects allocated to COMMON
  1357     001B  01F0               	clrf	__pbssCOMMON& (0+127)
  1358     001C  01F1               	clrf	(__pbssCOMMON+1)& (0+127)
  1359     001D  01F2               	clrf	(__pbssCOMMON+2)& (0+127)
  1360     001E  01F3               	clrf	(__pbssCOMMON+3)& (0+127)
  1361     001F                     end_of_initialization:	
  1362                           ;End of C runtime variable initialization code
  1363                           
  1364     001F                     __end_of__initialization:
  1365     001F  107E               	bcf	int$flags,0	;clear compiler interrupt flag (level 1)
  1366     0020  0020               	movlb	0
  1367     0021  3180  2860         	ljmp	_main	;jump to C main() function
  1368                           
  1369                           	psect	bssCOMMON
  1370     0070                     __pbssCOMMON:
  1371     0070                     _INT_InterruptHandler:
  1372     0070                     	ds	2
  1373     0072                     _CMP1_InterruptHandler:
  1374     0072                     	ds	2
  1375                           
  1376                           	psect	cstackCOMMON
  1377     0074                     __pcstackCOMMON:
  1378     0074                     ?_CMP1_InterruptCallbackRegister:
  1379     0074                     ?_CMP1_DefaultInterruptCallback:	
  1380                           ; 1 bytes @ 0x0
  1381                           
  1382     0074                     ??_CMP1_DefaultInterruptCallback:	
  1383                           ; 1 bytes @ 0x0
  1384                           
  1385     0074                     ?_CLOCK_Initialize:	
  1386                           ; 1 bytes @ 0x0
  1387                           
  1388     0074                     ??_CLOCK_Initialize:	
  1389                           ; 1 bytes @ 0x0
  1390                           
  1391     0074                     ?_PIN_MANAGER_Initialize:	
  1392                           ; 1 bytes @ 0x0
  1393                           
  1394     0074                     ??_PIN_MANAGER_Initialize:	
  1395                           ; 1 bytes @ 0x0
  1396                           
  1397     0074                     ?_INTERRUPT_Initialize:	
  1398                           ; 1 bytes @ 0x0
  1399                           
  1400     0074                     ?_INT_SetInterruptHandler:	
  1401                           ; 1 bytes @ 0x0
  1402                           
  1403     0074                     ?_CMP1_Initialize:	
  1404                           ; 1 bytes @ 0x0
  1405                           
  1406     0074                     ?_CMP1_GetOutputStatus:	
  1407                           ; 1 bytes @ 0x0
  1408                           
  1409     0074                     ??_CMP1_GetOutputStatus:	
  1410                           ; 1 bytes @ 0x0
  1411                           
  1412     0074                     ?_CMP1_ISR:	
  1413                           ; 1 bytes @ 0x0
  1414                           
  1415     0074                     ??_CMP1_ISR:	
  1416                           ; 1 bytes @ 0x0
  1417                           
  1418     0074                     ?_FVR_Initialize:	
  1419                           ; 1 bytes @ 0x0
  1420                           
  1421     0074                     ??_FVR_Initialize:	
  1422                           ; 1 bytes @ 0x0
  1423                           
  1424     0074                     ?_SYSTEM_Initialize:	
  1425                           ; 1 bytes @ 0x0
  1426                           
  1427     0074                     ?_INTERRUPT_InterruptManager:	
  1428                           ; 1 bytes @ 0x0
  1429                           
  1430     0074                     ??_INTERRUPT_InterruptManager:	
  1431                           ; 1 bytes @ 0x0
  1432                           
  1433     0074                     ?_turn:	
  1434                           ; 1 bytes @ 0x0
  1435                           
  1436     0074                     ??_turn:	
  1437                           ; 1 bytes @ 0x0
  1438                           
  1439     0074                     ?_main:	
  1440                           ; 1 bytes @ 0x0
  1441                           
  1442     0074                     CMP1_InterruptCallbackRegister@callbackHandler:	
  1443                           ; 2 bytes @ 0x0
  1444                           
  1445     0074                     INT_SetInterruptHandler@InterruptHandler:	
  1446                           ; 2 bytes @ 0x0
  1447                           
  1448                           
  1449                           ; 2 bytes @ 0x0
  1450     0074                     	ds	2
  1451     0076                     ??_CMP1_InterruptCallbackRegister:
  1452     0076                     ??_INTERRUPT_Initialize:	
  1453                           ; 1 bytes @ 0x2
  1454                           
  1455     0076                     ??_INT_SetInterruptHandler:	
  1456                           ; 1 bytes @ 0x2
  1457                           
  1458     0076                     ??_CMP1_Initialize:	
  1459                           ; 1 bytes @ 0x2
  1460                           
  1461     0076                     ??_SYSTEM_Initialize:	
  1462                           ; 1 bytes @ 0x2
  1463                           
  1464     0076                     ??_main:	
  1465                           ; 1 bytes @ 0x2
  1466                           
  1467                           
  1468                           	psect	maintext
  1469     0060                     __pmaintext:	
  1470                           ; 1 bytes @ 0x2
  1471 ;;
  1472 ;;Main: autosize = 0, tempsize = 0, incstack = 0, save=0
  1473 ;;
  1474 ;; *************** function _main *****************
  1475 ;; Defined at:
  1476 ;;		line 49 in file "main.c"
  1477 ;; Parameters:    Size  Location     Type
  1478 ;;		None
  1479 ;; Auto vars:     Size  Location     Type
  1480 ;;		None
  1481 ;; Return value:  Size  Location     Type
  1482 ;;                  2  171[None  ] int 
  1483 ;; Registers used:
  1484 ;;		wreg, status,2, status,0, pclath, cstack
  1485 ;; Tracked objects:
  1486 ;;		On entry : B1F/0
  1487 ;;		On exit  : 0/0
  1488 ;;		Unchanged: 0/0
  1489 ;; Data sizes:     COMMON   BANK0   BANK1   BANK2   BANK3   BANK4
  1490 ;;      Params:         0       0       0       0       0       0
  1491 ;;      Locals:         0       0       0       0       0       0
  1492 ;;      Temps:          0       0       0       0       0       0
  1493 ;;      Totals:         0       0       0       0       0       0
  1494 ;;Total ram usage:        0 bytes
  1495 ;; Hardware stack levels required when called: 7
  1496 ;; This function calls:
  1497 ;;		_CMP1_InterruptCallbackRegister
  1498 ;;		_SYSTEM_Initialize
  1499 ;; This function is called by:
  1500 ;;		Startup code after reset
  1501 ;; This function uses a non-reentrant model
  1502 ;;
  1503                           
  1504     0060                     _main:	
  1505                           ;psect for function _main
  1506                           
  1507     0060                     l895:	
  1508                           ;incstack = 0
  1509                           ; Regs used in _main: [wreg+status,2+status,0+pclath+cstack]
  1510                           
  1511                           
  1512                           ;main.c: 51:     SYSTEM_Initialize();
  1513     0060  3180  2050  3180   	fcall	_SYSTEM_Initialize
  1514                           
  1515                           ;main.c: 55:     CMP1_InterruptCallbackRegister(turn);
  1516     0063  307D               	movlw	low _turn
  1517     0064  00F4               	movwf	CMP1_InterruptCallbackRegister@callbackHandler
  1518     0065  3000               	movlw	high _turn
  1519     0066  00F5               	movwf	CMP1_InterruptCallbackRegister@callbackHandler+1
  1520     0067  3180  2096  3180   	fcall	_CMP1_InterruptCallbackRegister
  1521     006A                     l897:
  1522                           
  1523                           ;main.c: 62:     (INTCONbits.GIE = 1);
  1524     006A  178B               	bsf	11,7	;volatile
  1525     006B                     l899:
  1526                           
  1527                           ;main.c: 68:     (INTCONbits.PEIE = 1);
  1528     006B  170B               	bsf	11,6	;volatile
  1529     006C                     l172:	
  1530                           ;main.c: 74:     while(1)
  1531                           
  1532     006C                     l173:	
  1533                           ;main.c: 75:     {;main.c: 77:     }
  1534                           
  1535     006C  286C               	goto	l172
  1536     006D  3180  2819         	ljmp	start
  1537     006F                     __end_of_main:
  1538                           
  1539                           	psect	text1
  1540     0050                     __ptext1:	
  1541 ;; *************** function _SYSTEM_Initialize *****************
  1542 ;; Defined at:
  1543 ;;		line 39 in file "mcc_generated_files/system/src/system.c"
  1544 ;; Parameters:    Size  Location     Type
  1545 ;;		None
  1546 ;; Auto vars:     Size  Location     Type
  1547 ;;		None
  1548 ;; Return value:  Size  Location     Type
  1549 ;;                  1    wreg      void 
  1550 ;; Registers used:
  1551 ;;		wreg, status,2, status,0, pclath, cstack
  1552 ;; Tracked objects:
  1553 ;;		On entry : 0/0
  1554 ;;		On exit  : 0/0
  1555 ;;		Unchanged: 0/0
  1556 ;; Data sizes:     COMMON   BANK0   BANK1   BANK2   BANK3   BANK4
  1557 ;;      Params:         0       0       0       0       0       0
  1558 ;;      Locals:         0       0       0       0       0       0
  1559 ;;      Temps:          0       0       0       0       0       0
  1560 ;;      Totals:         0       0       0       0       0       0
  1561 ;;Total ram usage:        0 bytes
  1562 ;; Hardware stack levels used: 1
  1563 ;; Hardware stack levels required when called: 6
  1564 ;; This function calls:
  1565 ;;		_CLOCK_Initialize
  1566 ;;		_CMP1_Initialize
  1567 ;;		_FVR_Initialize
  1568 ;;		_INTERRUPT_Initialize
  1569 ;;		_PIN_MANAGER_Initialize
  1570 ;; This function is called by:
  1571 ;;		_main
  1572 ;; This function uses a non-reentrant model
  1573 ;;
  1574                           
  1575     0050                     _SYSTEM_Initialize:	
  1576                           ;psect for function _SYSTEM_Initialize
  1577                           
  1578     0050                     l893:	
  1579                           ;incstack = 0
  1580                           ; Regs used in _SYSTEM_Initialize: [wreg+status,2+status,0+pclath+cstack]
  1581                           
  1582                           
  1583                           ;mcc_generated_files/system/src/system.c: 41:     CLOCK_Initialize();
  1584     0050  3180  20A1  3180   	fcall	_CLOCK_Initialize
  1585                           
  1586                           ;mcc_generated_files/system/src/system.c: 42:     PIN_MANAGER_Initialize();
  1587     0053  3180  2023  3180   	fcall	_PIN_MANAGER_Initialize
  1588                           
  1589                           ;mcc_generated_files/system/src/system.c: 43:     CMP1_Initialize();
  1590     0056  3180  203D  3180   	fcall	_CMP1_Initialize
  1591                           
  1592                           ;mcc_generated_files/system/src/system.c: 44:     FVR_Initialize();
  1593     0059  3180  20AE  3180   	fcall	_FVR_Initialize
  1594                           
  1595                           ;mcc_generated_files/system/src/system.c: 45:     INTERRUPT_Initialize();
  1596     005C  3180  208B  3180   	fcall	_INTERRUPT_Initialize
  1597     005F                     l64:
  1598     005F  0008               	return
  1599     0060                     __end_of_SYSTEM_Initialize:
  1600                           
  1601                           	psect	text2
  1602     0023                     __ptext2:	
  1603 ;; *************** function _PIN_MANAGER_Initialize *****************
  1604 ;; Defined at:
  1605 ;;		line 38 in file "mcc_generated_files/system/src/pins.c"
  1606 ;; Parameters:    Size  Location     Type
  1607 ;;		None
  1608 ;; Auto vars:     Size  Location     Type
  1609 ;;		None
  1610 ;; Return value:  Size  Location     Type
  1611 ;;                  1    wreg      void 
  1612 ;; Registers used:
  1613 ;;		wreg, status,2
  1614 ;; Tracked objects:
  1615 ;;		On entry : 0/0
  1616 ;;		On exit  : 0/0
  1617 ;;		Unchanged: 0/0
  1618 ;; Data sizes:     COMMON   BANK0   BANK1   BANK2   BANK3   BANK4
  1619 ;;      Params:         0       0       0       0       0       0
  1620 ;;      Locals:         0       0       0       0       0       0
  1621 ;;      Temps:          0       0       0       0       0       0
  1622 ;;      Totals:         0       0       0       0       0       0
  1623 ;;Total ram usage:        0 bytes
  1624 ;; Hardware stack levels used: 1
  1625 ;; Hardware stack levels required when called: 4
  1626 ;; This function calls:
  1627 ;;		Nothing
  1628 ;; This function is called by:
  1629 ;;		_SYSTEM_Initialize
  1630 ;; This function uses a non-reentrant model
  1631 ;;
  1632                           
  1633     0023                     _PIN_MANAGER_Initialize:	
  1634                           ;psect for function _PIN_MANAGER_Initialize
  1635                           
  1636     0023                     l811:	
  1637                           ;incstack = 0
  1638                           ; Regs used in _PIN_MANAGER_Initialize: [wreg+status,2]
  1639                           
  1640                           
  1641                           ;mcc_generated_files/system/src/pins.c: 43:     LATA = 0x0;
  1642     0023  0022               	movlb	2	; select bank2
  1643     0024  018C               	clrf	12	;volatile
  1644                           
  1645                           ;mcc_generated_files/system/src/pins.c: 44:     LATB = 0x0;
  1646     0025  018D               	clrf	13	;volatile
  1647     0026                     l813:
  1648                           
  1649                           ;mcc_generated_files/system/src/pins.c: 49:     TRISA = 0xF7;
  1650     0026  30F7               	movlw	247
  1651     0027  0021               	movlb	1	; select bank1
  1652     0028  008C               	movwf	12	;volatile
  1653     0029                     l815:
  1654                           
  1655                           ;mcc_generated_files/system/src/pins.c: 50:     TRISB = 0xFF;
  1656     0029  30FF               	movlw	255
  1657     002A  008D               	movwf	13	;volatile
  1658     002B                     l817:
  1659                           
  1660                           ;mcc_generated_files/system/src/pins.c: 55:     ANSELA = 0x17;
  1661     002B  3017               	movlw	23
  1662     002C  0023               	movlb	3	; select bank3
  1663     002D  008C               	movwf	12	;volatile
  1664     002E                     l819:
  1665                           
  1666                           ;mcc_generated_files/system/src/pins.c: 56:     ANSELB = 0xFE;
  1667     002E  30FE               	movlw	254
  1668     002F  008D               	movwf	13	;volatile
  1669     0030                     l821:
  1670                           
  1671                           ;mcc_generated_files/system/src/pins.c: 61:     WPUA = 0x20;
  1672     0030  3020               	movlw	32
  1673     0031  0024               	movlb	4	; select bank4
  1674     0032  008C               	movwf	12	;volatile
  1675     0033                     l823:
  1676                           
  1677                           ;mcc_generated_files/system/src/pins.c: 62:     WPUB = 0xFF;
  1678     0033  30FF               	movlw	255
  1679     0034  008D               	movwf	13	;volatile
  1680     0035                     l825:
  1681                           
  1682                           ;mcc_generated_files/system/src/pins.c: 63:     OPTION_REGbits.nWPUEN = 0x0;
  1683     0035  0021               	movlb	1	; select bank1
  1684     0036  1395               	bcf	21,7	;volatile
  1685                           
  1686                           ;mcc_generated_files/system/src/pins.c: 87:     IOCBP = 0x0;
  1687     0037  0027               	movlb	7	; select bank7
  1688     0038  0194               	clrf	20	;volatile
  1689                           
  1690                           ;mcc_generated_files/system/src/pins.c: 88:     IOCBN = 0x0;
  1691     0039  0195               	clrf	21	;volatile
  1692                           
  1693                           ;mcc_generated_files/system/src/pins.c: 89:     IOCBF = 0x0;
  1694     003A  0196               	clrf	22	;volatile
  1695     003B                     l827:
  1696                           
  1697                           ;mcc_generated_files/system/src/pins.c: 93:     INTCONbits.IOCIE = 1;
  1698     003B  158B               	bsf	11,3	;volatile
  1699     003C                     l93:
  1700     003C  0008               	return
  1701     003D                     __end_of_PIN_MANAGER_Initialize:
  1702                           
  1703                           	psect	text3
  1704     008B                     __ptext3:	
  1705 ;; *************** function _INTERRUPT_Initialize *****************
  1706 ;; Defined at:
  1707 ;;		line 40 in file "mcc_generated_files/system/src/interrupt.c"
  1708 ;; Parameters:    Size  Location     Type
  1709 ;;		None
  1710 ;; Auto vars:     Size  Location     Type
  1711 ;;		None
  1712 ;; Return value:  Size  Location     Type
  1713 ;;                  1    wreg      void 
  1714 ;; Registers used:
  1715 ;;		wreg, status,2, status,0, pclath, cstack
  1716 ;; Tracked objects:
  1717 ;;		On entry : 0/0
  1718 ;;		On exit  : 0/0
  1719 ;;		Unchanged: 0/0
  1720 ;; Data sizes:     COMMON   BANK0   BANK1   BANK2   BANK3   BANK4
  1721 ;;      Params:         0       0       0       0       0       0
  1722 ;;      Locals:         0       0       0       0       0       0
  1723 ;;      Temps:          0       0       0       0       0       0
  1724 ;;      Totals:         0       0       0       0       0       0
  1725 ;;Total ram usage:        0 bytes
  1726 ;; Hardware stack levels used: 1
  1727 ;; Hardware stack levels required when called: 5
  1728 ;; This function calls:
  1729 ;;		_INT_SetInterruptHandler
  1730 ;; This function is called by:
  1731 ;;		_SYSTEM_Initialize
  1732 ;; This function uses a non-reentrant model
  1733 ;;
  1734                           
  1735     008B                     _INTERRUPT_Initialize:	
  1736                           ;psect for function _INTERRUPT_Initialize
  1737                           
  1738     008B                     l889:	
  1739                           ;incstack = 0
  1740                           ; Regs used in _INTERRUPT_Initialize: [wreg+status,2+status,0+pclath+cstack]
  1741                           
  1742                           
  1743                           ;mcc_generated_files/system/src/interrupt.c: 44:     (INTCONbits.INTF = 0);
  1744     008B  108B               	bcf	11,1	;volatile
  1745                           
  1746                           ;mcc_generated_files/system/src/interrupt.c: 45:     (OPTION_REGbits.INTEDG = 1);
  1747     008C  0021               	movlb	1	; select bank1
  1748     008D  1715               	bsf	21,6	;volatile
  1749     008E                     l891:
  1750                           
  1751                           ;mcc_generated_files/system/src/interrupt.c: 47:     INT_SetInterruptHandler(INT_Default
      +                          InterruptHandler);
  1752     008E  3000               	movlw	0
  1753     008F  00F4               	movwf	INT_SetInterruptHandler@InterruptHandler
  1754     0090  3000               	movlw	0
  1755     0091  00F5               	movwf	INT_SetInterruptHandler@InterruptHandler+1
  1756     0092  3180  20A9  3180   	fcall	_INT_SetInterruptHandler
  1757     0095                     l126:
  1758     0095  0008               	return
  1759     0096                     __end_of_INTERRUPT_Initialize:
  1760                           
  1761                           	psect	text4
  1762     00A9                     __ptext4:	
  1763 ;; *************** function _INT_SetInterruptHandler *****************
  1764 ;; Defined at:
  1765 ;;		line 97 in file "mcc_generated_files/system/src/interrupt.c"
  1766 ;; Parameters:    Size  Location     Type
  1767 ;;  InterruptHan    2    0[COMMON] PTR FTN()void 
  1768 ;;		 -> INT_DefaultInterruptHandler(1), 
  1769 ;; Auto vars:     Size  Location     Type
  1770 ;;		None
  1771 ;; Return value:  Size  Location     Type
  1772 ;;                  1    wreg      void 
  1773 ;; Registers used:
  1774 ;;		wreg
  1775 ;; Tracked objects:
  1776 ;;		On entry : 0/0
  1777 ;;		On exit  : 0/0
  1778 ;;		Unchanged: 0/0
  1779 ;; Data sizes:     COMMON   BANK0   BANK1   BANK2   BANK3   BANK4
  1780 ;;      Params:         2       0       0       0       0       0
  1781 ;;      Locals:         0       0       0       0       0       0
  1782 ;;      Temps:          0       0       0       0       0       0
  1783 ;;      Totals:         2       0       0       0       0       0
  1784 ;;Total ram usage:        2 bytes
  1785 ;; Hardware stack levels used: 1
  1786 ;; Hardware stack levels required when called: 4
  1787 ;; This function calls:
  1788 ;;		Nothing
  1789 ;; This function is called by:
  1790 ;;		_INTERRUPT_Initialize
  1791 ;; This function uses a non-reentrant model
  1792 ;;
  1793                           
  1794     00A9                     _INT_SetInterruptHandler:	
  1795                           ;psect for function _INT_SetInterruptHandler
  1796                           
  1797     00A9                     l877:	
  1798                           ;incstack = 0
  1799                           ; Regs used in _INT_SetInterruptHandler: [wreg]
  1800                           
  1801                           
  1802                           ;mcc_generated_files/system/src/interrupt.c: 98:     INT_InterruptHandler = InterruptHan
      +                          dler;
  1803     00A9  0875               	movf	INT_SetInterruptHandler@InterruptHandler+1,w
  1804     00AA  00F1               	movwf	_INT_InterruptHandler+1
  1805     00AB  0874               	movf	INT_SetInterruptHandler@InterruptHandler,w
  1806     00AC  00F0               	movwf	_INT_InterruptHandler
  1807     00AD                     l145:
  1808     00AD  0008               	return
  1809     00AE                     __end_of_INT_SetInterruptHandler:
  1810                           
  1811                           	psect	text5
  1812     00AE                     __ptext5:	
  1813 ;; *************** function _FVR_Initialize *****************
  1814 ;; Defined at:
  1815 ;;		line 43 in file "mcc_generated_files/fvr/src/fvr.c"
  1816 ;; Parameters:    Size  Location     Type
  1817 ;;		None
  1818 ;; Auto vars:     Size  Location     Type
  1819 ;;		None
  1820 ;; Return value:  Size  Location     Type
  1821 ;;                  1    wreg      void 
  1822 ;; Registers used:
  1823 ;;		wreg
  1824 ;; Tracked objects:
  1825 ;;		On entry : 0/0
  1826 ;;		On exit  : 0/0
  1827 ;;		Unchanged: 0/0
  1828 ;; Data sizes:     COMMON   BANK0   BANK1   BANK2   BANK3   BANK4
  1829 ;;      Params:         0       0       0       0       0       0
  1830 ;;      Locals:         0       0       0       0       0       0
  1831 ;;      Temps:          0       0       0       0       0       0
  1832 ;;      Totals:         0       0       0       0       0       0
  1833 ;;Total ram usage:        0 bytes
  1834 ;; Hardware stack levels used: 1
  1835 ;; Hardware stack levels required when called: 4
  1836 ;; This function calls:
  1837 ;;		Nothing
  1838 ;; This function is called by:
  1839 ;;		_SYSTEM_Initialize
  1840 ;; This function uses a non-reentrant model
  1841 ;;
  1842                           
  1843     00AE                     _FVR_Initialize:	
  1844                           ;psect for function _FVR_Initialize
  1845                           
  1846     00AE                     l803:	
  1847                           ;incstack = 0
  1848                           ; Regs used in _FVR_Initialize: [wreg]
  1849                           
  1850                           
  1851                           ;mcc_generated_files/fvr/src/fvr.c: 46:     FVRCON = 0x88;
  1852     00AE  3088               	movlw	136
  1853     00AF  0022               	movlb	2	; select bank2
  1854     00B0  0097               	movwf	23	;volatile
  1855     00B1                     l48:
  1856     00B1  0008               	return
  1857     00B2                     __end_of_FVR_Initialize:
  1858                           
  1859                           	psect	text6
  1860     003D                     __ptext6:	
  1861 ;; *************** function _CMP1_Initialize *****************
  1862 ;; Defined at:
  1863 ;;		line 40 in file "mcc_generated_files/comparator/src/cmp1.c"
  1864 ;; Parameters:    Size  Location     Type
  1865 ;;		None
  1866 ;; Auto vars:     Size  Location     Type
  1867 ;;		None
  1868 ;; Return value:  Size  Location     Type
  1869 ;;                  1    wreg      void 
  1870 ;; Registers used:
  1871 ;;		wreg, status,2, status,0, pclath, cstack
  1872 ;; Tracked objects:
  1873 ;;		On entry : 0/0
  1874 ;;		On exit  : 0/0
  1875 ;;		Unchanged: 0/0
  1876 ;; Data sizes:     COMMON   BANK0   BANK1   BANK2   BANK3   BANK4
  1877 ;;      Params:         0       0       0       0       0       0
  1878 ;;      Locals:         0       0       0       0       0       0
  1879 ;;      Temps:          0       0       0       0       0       0
  1880 ;;      Totals:         0       0       0       0       0       0
  1881 ;;Total ram usage:        0 bytes
  1882 ;; Hardware stack levels used: 1
  1883 ;; Hardware stack levels required when called: 5
  1884 ;; This function calls:
  1885 ;;		_CMP1_InterruptCallbackRegister
  1886 ;; This function is called by:
  1887 ;;		_SYSTEM_Initialize
  1888 ;; This function uses a non-reentrant model
  1889 ;;
  1890                           
  1891     003D                     _CMP1_Initialize:	
  1892                           ;psect for function _CMP1_Initialize
  1893                           
  1894     003D                     l879:	
  1895                           ;incstack = 0
  1896                           ; Regs used in _CMP1_Initialize: [wreg+status,2+status,0+pclath+cstack]
  1897                           
  1898                           
  1899                           ;mcc_generated_files/comparator/src/cmp1.c: 47:     PIE2bits.C1IE = 0;
  1900     003D  0021               	movlb	1	; select bank1
  1901     003E  1292               	bcf	18,5	;volatile
  1902     003F                     l881:
  1903                           
  1904                           ;mcc_generated_files/comparator/src/cmp1.c: 50:     CM1CON0 = 0x84;
  1905     003F  3084               	movlw	132
  1906     0040  0022               	movlb	2	; select bank2
  1907     0041  0091               	movwf	17	;volatile
  1908                           
  1909                           ;mcc_generated_files/comparator/src/cmp1.c: 53:     CM1CON1 = 0xE1;
  1910     0042  30E1               	movlw	225
  1911     0043  0092               	movwf	18	;volatile
  1912     0044                     l883:
  1913                           
  1914                           ;mcc_generated_files/comparator/src/cmp1.c: 56:     CMP1_InterruptCallbackRegister(CMP1_
      +                          DefaultInterruptCallback);
  1915     0044  30B6               	movlw	low _CMP1_DefaultInterruptCallback
  1916     0045  00F4               	movwf	CMP1_InterruptCallbackRegister@callbackHandler
  1917     0046  3000               	movlw	high _CMP1_DefaultInterruptCallback
  1918     0047  00F5               	movwf	CMP1_InterruptCallbackRegister@callbackHandler+1
  1919     0048  3180  2096  3180   	fcall	_CMP1_InterruptCallbackRegister
  1920     004B                     l885:
  1921                           
  1922                           ;mcc_generated_files/comparator/src/cmp1.c: 59:     PIR2bits.C1IF = 0;
  1923     004B  0020               	movlb	0	; select bank0
  1924     004C  1292               	bcf	18,5	;volatile
  1925     004D                     l887:
  1926                           
  1927                           ;mcc_generated_files/comparator/src/cmp1.c: 62:     PIE2bits.C1IE = 1;
  1928     004D  0021               	movlb	1	; select bank1
  1929     004E  1692               	bsf	18,5	;volatile
  1930     004F                     l21:
  1931     004F  0008               	return
  1932     0050                     __end_of_CMP1_Initialize:
  1933                           
  1934                           	psect	text7
  1935     0096                     __ptext7:	
  1936 ;; *************** function _CMP1_InterruptCallbackRegister *****************
  1937 ;; Defined at:
  1938 ;;		line 91 in file "mcc_generated_files/comparator/src/cmp1.c"
  1939 ;; Parameters:    Size  Location     Type
  1940 ;;  callbackHand    2    0[COMMON] PTR FTN()void 
  1941 ;;		 -> turn(1), CMP1_DefaultInterruptCallback(1), 
  1942 ;; Auto vars:     Size  Location     Type
  1943 ;;		None
  1944 ;; Return value:  Size  Location     Type
  1945 ;;                  1    wreg      void 
  1946 ;; Registers used:
  1947 ;;		wreg, status,2, status,0
  1948 ;; Tracked objects:
  1949 ;;		On entry : 0/0
  1950 ;;		On exit  : 0/0
  1951 ;;		Unchanged: 0/0
  1952 ;; Data sizes:     COMMON   BANK0   BANK1   BANK2   BANK3   BANK4
  1953 ;;      Params:         2       0       0       0       0       0
  1954 ;;      Locals:         0       0       0       0       0       0
  1955 ;;      Temps:          0       0       0       0       0       0
  1956 ;;      Totals:         2       0       0       0       0       0
  1957 ;;Total ram usage:        2 bytes
  1958 ;; Hardware stack levels used: 1
  1959 ;; Hardware stack levels required when called: 4
  1960 ;; This function calls:
  1961 ;;		Nothing
  1962 ;; This function is called by:
  1963 ;;		_CMP1_Initialize
  1964 ;;		_main
  1965 ;; This function uses a non-reentrant model
  1966 ;;
  1967                           
  1968     0096                     _CMP1_InterruptCallbackRegister:	
  1969                           ;psect for function _CMP1_InterruptCallbackRegister
  1970                           
  1971     0096                     l873:	
  1972                           ;incstack = 0
  1973                           ; Regs used in _CMP1_InterruptCallbackRegister: [wreg+status,2+status,0]
  1974                           
  1975                           
  1976                           ;mcc_generated_files/comparator/src/cmp1.c: 91: void CMP1_InterruptCallbackRegister(void
      +                          (*callbackHandler)(void));mcc_generated_files/comparator/src/cmp1.c: 92: {;mcc_generated
      +                          _files/comparator/src/cmp1.c: 93:     if(((void*)0) != callbackHandler)
  1977     0096  0874               	movf	CMP1_InterruptCallbackRegister@callbackHandler,w
  1978     0097  0475               	iorwf	CMP1_InterruptCallbackRegister@callbackHandler+1,w
  1979     0098  1903               	btfsc	3,2
  1980     0099  289B               	goto	u81
  1981     009A  289C               	goto	u80
  1982     009B                     u81:
  1983     009B  28A0               	goto	l38
  1984     009C                     u80:
  1985     009C                     l875:
  1986                           
  1987                           ;mcc_generated_files/comparator/src/cmp1.c: 94:     {;mcc_generated_files/comparator/src
      +                          /cmp1.c: 95:       CMP1_InterruptHandler = callbackHandler;
  1988     009C  0875               	movf	CMP1_InterruptCallbackRegister@callbackHandler+1,w
  1989     009D  00F3               	movwf	_CMP1_InterruptHandler+1
  1990     009E  0874               	movf	CMP1_InterruptCallbackRegister@callbackHandler,w
  1991     009F  00F2               	movwf	_CMP1_InterruptHandler
  1992     00A0                     l38:
  1993     00A0  0008               	return
  1994     00A1                     __end_of_CMP1_InterruptCallbackRegister:
  1995                           
  1996                           	psect	text8
  1997     00A1                     __ptext8:	
  1998 ;; *************** function _CLOCK_Initialize *****************
  1999 ;; Defined at:
  2000 ;;		line 39 in file "mcc_generated_files/system/src/clock.c"
  2001 ;; Parameters:    Size  Location     Type
  2002 ;;		None
  2003 ;; Auto vars:     Size  Location     Type
  2004 ;;		None
  2005 ;; Return value:  Size  Location     Type
  2006 ;;                  1    wreg      void 
  2007 ;; Registers used:
  2008 ;;		wreg, status,2
  2009 ;; Tracked objects:
  2010 ;;		On entry : 0/0
  2011 ;;		On exit  : 0/0
  2012 ;;		Unchanged: 0/0
  2013 ;; Data sizes:     COMMON   BANK0   BANK1   BANK2   BANK3   BANK4
  2014 ;;      Params:         0       0       0       0       0       0
  2015 ;;      Locals:         0       0       0       0       0       0
  2016 ;;      Temps:          0       0       0       0       0       0
  2017 ;;      Totals:         0       0       0       0       0       0
  2018 ;;Total ram usage:        0 bytes
  2019 ;; Hardware stack levels used: 1
  2020 ;; Hardware stack levels required when called: 4
  2021 ;; This function calls:
  2022 ;;		Nothing
  2023 ;; This function is called by:
  2024 ;;		_SYSTEM_Initialize
  2025 ;; This function uses a non-reentrant model
  2026 ;;
  2027                           
  2028     00A1                     _CLOCK_Initialize:	
  2029                           ;psect for function _CLOCK_Initialize
  2030                           
  2031     00A1                     l805:	
  2032                           ;incstack = 0
  2033                           ; Regs used in _CLOCK_Initialize: [wreg+status,2]
  2034                           
  2035                           
  2036                           ;mcc_generated_files/system/src/clock.c: 41:     OSCCON = (15 << 0x3)
  2037     00A1  3078               	movlw	120
  2038     00A2  0021               	movlb	1	; select bank1
  2039     00A3  0099               	movwf	25	;volatile
  2040     00A4                     l807:
  2041                           
  2042                           ;mcc_generated_files/system/src/clock.c: 44:     BORCON = (0 << 0x7);
  2043     00A4  0022               	movlb	2	; select bank2
  2044     00A5  0196               	clrf	22	;volatile
  2045     00A6                     l809:
  2046                           
  2047                           ;mcc_generated_files/system/src/clock.c: 45:     OSCTUNE = (0 << 0x0);
  2048     00A6  0021               	movlb	1	; select bank1
  2049     00A7  0198               	clrf	24	;volatile
  2050     00A8                     l105:
  2051     00A8  0008               	return
  2052     00A9                     __end_of_CLOCK_Initialize:
  2053                           
  2054                           	psect	intentry
  2055     0004                     __pintentry:	
  2056 ;; *************** function _INTERRUPT_InterruptManager *****************
  2057 ;; Defined at:
  2058 ;;		line 59 in file "mcc_generated_files/system/src/interrupt.c"
  2059 ;; Parameters:    Size  Location     Type
  2060 ;;		None
  2061 ;; Auto vars:     Size  Location     Type
  2062 ;;		None
  2063 ;; Return value:  Size  Location     Type
  2064 ;;                  1    wreg      void 
  2065 ;; Registers used:
  2066 ;;		wreg, status,2, status,0, pclath, cstack
  2067 ;; Tracked objects:
  2068 ;;		On entry : 0/0
  2069 ;;		On exit  : 0/0
  2070 ;;		Unchanged: 0/0
  2071 ;; Data sizes:     COMMON   BANK0   BANK1   BANK2   BANK3   BANK4
  2072 ;;      Params:         0       0       0       0       0       0
  2073 ;;      Locals:         0       0       0       0       0       0
  2074 ;;      Temps:          0       0       0       0       0       0
  2075 ;;      Totals:         0       0       0       0       0       0
  2076 ;;Total ram usage:        0 bytes
  2077 ;; Hardware stack levels used: 1
  2078 ;; Hardware stack levels required when called: 3
  2079 ;; This function calls:
  2080 ;;		_CMP1_ISR
  2081 ;; This function is called by:
  2082 ;;		Interrupt level 1
  2083 ;; This function uses a non-reentrant model
  2084 ;;
  2085                           
  2086     0004                     _INTERRUPT_InterruptManager:
  2087                           
  2088                           ;incstack = 0
  2089     0004  147E               	bsf	int$flags,0	;set compiler interrupt flag (level 1)
  2090                           
  2091                           ; Regs used in _INTERRUPT_InterruptManager: [wreg+status,2+status,0+pclath+cstack]
  2092     0005  3180               	pagesel	$
  2093     0006                     i1l851:
  2094                           
  2095                           ;mcc_generated_files/system/src/interrupt.c: 62:     if(INTCONbits.PEIE == 1)
  2096     0006  1F0B               	btfss	11,6	;volatile
  2097     0007  2809               	goto	u4_21
  2098     0008  280A               	goto	u4_20
  2099     0009                     u4_21:
  2100     0009  2817               	goto	i1l135
  2101     000A                     u4_20:
  2102     000A                     i1l853:
  2103                           
  2104                           ;mcc_generated_files/system/src/interrupt.c: 63:     {;mcc_generated_files/system/src/in
      +                          terrupt.c: 64:         if(PIE2bits.C1IE == 1 && PIR2bits.C1IF == 1)
  2105     000A  0021               	movlb	1	; select bank1
  2106     000B  1E92               	btfss	18,5	;volatile
  2107     000C  280E               	goto	u5_21
  2108     000D  280F               	goto	u5_20
  2109     000E                     u5_21:
  2110     000E  2817               	goto	i1l135
  2111     000F                     u5_20:
  2112     000F                     i1l855:
  2113     000F  0020               	movlb	0	; select bank0
  2114     0010  1E92               	btfss	18,5	;volatile
  2115     0011  2813               	goto	u6_21
  2116     0012  2814               	goto	u6_20
  2117     0013                     u6_21:
  2118     0013  2817               	goto	i1l135
  2119     0014                     u6_20:
  2120     0014                     i1l857:
  2121                           
  2122                           ;mcc_generated_files/system/src/interrupt.c: 65:         {;mcc_generated_files/system/sr
      +                          c/interrupt.c: 66:             CMP1_ISR();
  2123     0014  3180  206F  3180   	fcall	_CMP1_ISR
  2124     0017                     i1l135:	
  2125                           ;mcc_generated_files/system/src/interrupt.c: 67:         }
  2126                           
  2127     0017  107E               	bcf	int$flags,0	;clear compiler interrupt flag (level 1)
  2128     0018  0009               	retfie
  2129     0019                     __end_of_INTERRUPT_InterruptManager:
  2130                           
  2131                           	psect	text10
  2132     006F                     __ptext10:	
  2133 ;; *************** function _CMP1_ISR *****************
  2134 ;; Defined at:
  2135 ;;		line 80 in file "mcc_generated_files/comparator/src/cmp1.c"
  2136 ;; Parameters:    Size  Location     Type
  2137 ;;		None
  2138 ;; Auto vars:     Size  Location     Type
  2139 ;;		None
  2140 ;; Return value:  Size  Location     Type
  2141 ;;                  1    wreg      void 
  2142 ;; Registers used:
  2143 ;;		wreg, status,2, status,0, pclath, cstack
  2144 ;; Tracked objects:
  2145 ;;		On entry : 0/0
  2146 ;;		On exit  : 0/0
  2147 ;;		Unchanged: 0/0
  2148 ;; Data sizes:     COMMON   BANK0   BANK1   BANK2   BANK3   BANK4
  2149 ;;      Params:         0       0       0       0       0       0
  2150 ;;      Locals:         0       0       0       0       0       0
  2151 ;;      Temps:          0       0       0       0       0       0
  2152 ;;      Totals:         0       0       0       0       0       0
  2153 ;;Total ram usage:        0 bytes
  2154 ;; Hardware stack levels used: 1
  2155 ;; Hardware stack levels required when called: 2
  2156 ;; This function calls:
  2157 ;;		NULL
  2158 ;;		_CMP1_DefaultInterruptCallback
  2159 ;;		_turn
  2160 ;; This function is called by:
  2161 ;;		_INTERRUPT_InterruptManager
  2162 ;; This function uses a non-reentrant model
  2163 ;;
  2164                           
  2165     006F                     _CMP1_ISR:	
  2166                           ;psect for function _CMP1_ISR
  2167                           
  2168     006F                     i1l835:	
  2169                           ;incstack = 0
  2170                           ; Regs used in _CMP1_ISR: [wreg+status,2+status,0+pclath+cstack]
  2171                           
  2172                           
  2173                           ;mcc_generated_files/comparator/src/cmp1.c: 83:     PIR2bits.C1IF = 0;
  2174     006F  0020               	movlb	0	; select bank0
  2175     0070  1292               	bcf	18,5	;volatile
  2176     0071                     i1l837:
  2177                           
  2178                           ;mcc_generated_files/comparator/src/cmp1.c: 85:     if(CMP1_InterruptHandler)
  2179     0071  0872               	movf	_CMP1_InterruptHandler,w
  2180     0072  0473               	iorwf	_CMP1_InterruptHandler+1,w
  2181     0073  1903               	btfsc	3,2
  2182     0074  2876               	goto	u3_21
  2183     0075  2877               	goto	u3_20
  2184     0076                     u3_21:
  2185     0076  287C               	goto	i1l34
  2186     0077                     u3_20:
  2187     0077                     i1l839:
  2188                           
  2189                           ;mcc_generated_files/comparator/src/cmp1.c: 86:     {;mcc_generated_files/comparator/src
      +                          /cmp1.c: 87:       CMP1_InterruptHandler();
  2190     0077  0873               	movf	_CMP1_InterruptHandler+1,w
  2191     0078  008A               	movwf	10
  2192     0079  0872               	movf	_CMP1_InterruptHandler,w
  2193     007A  000A               	callw
  2194     007B  3180               	pagesel	$
  2195     007C                     i1l34:
  2196     007C  0008               	return
  2197     007D                     __end_of_CMP1_ISR:
  2198                           
  2199                           	psect	text11
  2200     00B6                     __ptext11:	
  2201 ;; *************** function _CMP1_DefaultInterruptCallback *****************
  2202 ;; Defined at:
  2203 ;;		line 99 in file "mcc_generated_files/comparator/src/cmp1.c"
  2204 ;; Parameters:    Size  Location     Type
  2205 ;;		None
  2206 ;; Auto vars:     Size  Location     Type
  2207 ;;		None
  2208 ;; Return value:  Size  Location     Type
  2209 ;;                  1    wreg      void 
  2210 ;; Registers used:
  2211 ;;		None
  2212 ;; Tracked objects:
  2213 ;;		On entry : 0/0
  2214 ;;		On exit  : 0/0
  2215 ;;		Unchanged: 0/0
  2216 ;; Data sizes:     COMMON   BANK0   BANK1   BANK2   BANK3   BANK4
  2217 ;;      Params:         0       0       0       0       0       0
  2218 ;;      Locals:         0       0       0       0       0       0
  2219 ;;      Temps:          0       0       0       0       0       0
  2220 ;;      Totals:         0       0       0       0       0       0
  2221 ;;Total ram usage:        0 bytes
  2222 ;; Hardware stack levels used: 1
  2223 ;; This function calls:
  2224 ;;		Nothing
  2225 ;; This function is called by:
  2226 ;;		_CMP1_Initialize
  2227 ;;		_CMP1_ISR
  2228 ;; This function uses a non-reentrant model
  2229 ;;
  2230                           
  2231     00B6                     _CMP1_DefaultInterruptCallback:	
  2232                           ;psect for function _CMP1_DefaultInterruptCallback
  2233                           
  2234     00B6                     i1l41:	
  2235                           ;incstack = 0
  2236                           ; Regs used in _CMP1_DefaultInterruptCallback: []
  2237                           
  2238     00B6  0008               	return
  2239     00B7                     __end_of_CMP1_DefaultInterruptCallback:
  2240                           
  2241                           	psect	text12
  2242     007D                     __ptext12:	
  2243 ;; *************** function _turn *****************
  2244 ;; Defined at:
  2245 ;;		line 38 in file "main.c"
  2246 ;; Parameters:    Size  Location     Type
  2247 ;;		None
  2248 ;; Auto vars:     Size  Location     Type
  2249 ;;		None
  2250 ;; Return value:  Size  Location     Type
  2251 ;;                  1    wreg      void 
  2252 ;; Registers used:
  2253 ;;		wreg, status,2, status,0, pclath, cstack
  2254 ;; Tracked objects:
  2255 ;;		On entry : 0/0
  2256 ;;		On exit  : 0/0
  2257 ;;		Unchanged: 0/0
  2258 ;; Data sizes:     COMMON   BANK0   BANK1   BANK2   BANK3   BANK4
  2259 ;;      Params:         0       0       0       0       0       0
  2260 ;;      Locals:         0       0       0       0       0       0
  2261 ;;      Temps:          0       0       0       0       0       0
  2262 ;;      Totals:         0       0       0       0       0       0
  2263 ;;Total ram usage:        0 bytes
  2264 ;; Hardware stack levels used: 1
  2265 ;; Hardware stack levels required when called: 1
  2266 ;; This function calls:
  2267 ;;		_CMP1_GetOutputStatus
  2268 ;; This function is called by:
  2269 ;;		_main
  2270 ;;		_CMP1_ISR
  2271 ;; This function uses a non-reentrant model
  2272 ;;
  2273                           
  2274     007D                     _turn:	
  2275                           ;psect for function _turn
  2276                           
  2277     007D                     i1l833:	
  2278                           ;incstack = 0
  2279                           ; Regs used in _turn: [wreg+status,2+status,0+pclath+cstack]
  2280                           
  2281                           
  2282                           ;main.c: 40:     if (CMP1_GetOutputStatus())
  2283     007D  3180  20B2  3180   	fcall	_CMP1_GetOutputStatus
  2284     0080  3A00               	xorlw	0
  2285     0081  1903               	skipnz
  2286     0082  2884               	goto	u2_21
  2287     0083  2885               	goto	u2_20
  2288     0084                     u2_21:
  2289     0084  2888               	goto	i1l165
  2290     0085                     u2_20:
  2291     0085                     i1l162:	
  2292                           ;main.c: 41:         {;main.c: 42:             do { LATAbits.LATA3 = 1; } while(0);
  2293                           
  2294     0085  0022               	movlb	2	; select bank2
  2295     0086  158C               	bsf	12,3	;volatile
  2296     0087  288A               	goto	i1l167
  2297     0088                     i1l165:	
  2298                           ;main.c: 45:         {;main.c: 46:             do { LATAbits.LATA3 = 0; } while(0);
  2299                           
  2300     0088  0022               	movlb	2	; select bank2
  2301     0089  118C               	bcf	12,3	;volatile
  2302     008A                     i1l167:
  2303     008A  0008               	return
  2304     008B                     __end_of_turn:
  2305                           
  2306                           	psect	text13
  2307     00B2                     __ptext13:	
  2308 ;; *************** function _CMP1_GetOutputStatus *****************
  2309 ;; Defined at:
  2310 ;;		line 75 in file "mcc_generated_files/comparator/src/cmp1.c"
  2311 ;; Parameters:    Size  Location     Type
  2312 ;;		None
  2313 ;; Auto vars:     Size  Location     Type
  2314 ;;		None
  2315 ;; Return value:  Size  Location     Type
  2316 ;;                  1    wreg      _Bool 
  2317 ;; Registers used:
  2318 ;;		wreg, status,2, status,0
  2319 ;; Tracked objects:
  2320 ;;		On entry : 0/0
  2321 ;;		On exit  : 0/0
  2322 ;;		Unchanged: 0/0
  2323 ;; Data sizes:     COMMON   BANK0   BANK1   BANK2   BANK3   BANK4
  2324 ;;      Params:         0       0       0       0       0       0
  2325 ;;      Locals:         0       0       0       0       0       0
  2326 ;;      Temps:          0       0       0       0       0       0
  2327 ;;      Totals:         0       0       0       0       0       0
  2328 ;;Total ram usage:        0 bytes
  2329 ;; Hardware stack levels used: 1
  2330 ;; This function calls:
  2331 ;;		Nothing
  2332 ;; This function is called by:
  2333 ;;		_turn
  2334 ;; This function uses a non-reentrant model
  2335 ;;
  2336                           
  2337     00B2                     _CMP1_GetOutputStatus:	
  2338                           ;psect for function _CMP1_GetOutputStatus
  2339                           
  2340     00B2                     i1l787:	
  2341                           ;incstack = 0
  2342                           ; Regs used in _CMP1_GetOutputStatus: [wreg+status,2+status,0]
  2343                           
  2344                           
  2345                           ;mcc_generated_files/comparator/src/cmp1.c: 77:     return CMOUTbits.MC1OUT;
  2346     00B2  0022               	movlb	2	; select bank2
  2347     00B3  0815               	movf	21,w	;volatile
  2348     00B4  3901               	andlw	1
  2349     00B5                     i1l30:
  2350     00B5  0008               	return
  2351     00B6                     __end_of_CMP1_GetOutputStatus:
  2352     007E                     btemp	set	126	;btemp
  2353     007E                     int$flags	set	126
  2354     007E                     wtemp0	set	126
  2355                           
  2356                           	psect	config
  2357                           
  2358                           ;Config register CONFIG1 @ 0x8007
  2359                           ;	Oscillator Selection
  2360                           ;	FOSC = INTOSC, INTOSC oscillator: I/O function on CLKIN pin
  2361                           ;	Watchdog Timer Enable
  2362                           ;	WDTE = OFF, WDT disabled
  2363                           ;	Power-up Timer Enable
  2364                           ;	PWRTE = OFF, PWRT disabled
  2365                           ;	MCLR Pin Function Select
  2366                           ;	MCLRE = ON, MCLR/VPP pin function is MCLR
  2367                           ;	Flash Program Memory Code Protection
  2368                           ;	CP = OFF, Program memory code protection is disabled
  2369                           ;	Data Memory Code Protection
  2370                           ;	CPD = OFF, Data memory code protection is disabled
  2371                           ;	Brown-out Reset Enable
  2372                           ;	BOREN = ON, Brown-out Reset enabled
  2373                           ;	Clock Out Enable
  2374                           ;	CLKOUTEN = OFF, CLKOUT function is disabled. I/O or oscillator function on the CLKOUT 
      +                          pin
  2375                           ;	Internal/External Switchover
  2376                           ;	IESO = ON, Internal/External Switchover mode is enabled
  2377                           ;	Fail-Safe Clock Monitor Enable
  2378                           ;	FCMEN = ON, Fail-Safe Clock Monitor is enabled
  2379     8007                     	org	32775
  2380     8007  3FE4               	dw	16356
  2381                           
  2382                           ;Config register CONFIG2 @ 0x8008
  2383                           ;	Flash Memory Self-Write Protection
  2384                           ;	WRT = OFF, Write protection off
  2385                           ;	PLL Enable
  2386                           ;	PLLEN = OFF, 4x PLL disabled
  2387                           ;	Stack Overflow/Underflow Reset Enable
  2388                           ;	STVREN = ON, Stack Overflow or Underflow will cause a Reset
  2389                           ;	Brown-out Reset Voltage Selection
  2390                           ;	BORV = LO, Brown-out Reset Voltage (Vbor), low trip point selected.
  2391                           ;	In-Circuit Debugger Mode
  2392                           ;	DEBUG = 0x1, unprogrammed default
  2393                           ;	Low-Voltage Programming Enable
  2394                           ;	LVP = ON, Low-voltage programming enabled
  2395     8008                     	org	32776
  2396     8008  3EFF               	dw	16127

Data Sizes:
    Strings     0
    Constant    0
    Data        0
    BSS         4
    Persistent  32
    Stack       0

Auto Spaces:
    Space          Size  Autos    Used
    COMMON           14      2       6
    BANK0            80      0       0
    BANK1            80      0       0
    BANK2            80      0       0
    BANK3            80      0       0
    BANK4            48      0       0

Pointer List with Targets:

    CMP1_InterruptCallbackRegister@callbackHandler	PTR FTN()void  size(2) Largest target is 1
		 -> CMP1_DefaultInterruptCallback(), turn(), 

    CMP1_InterruptHandler	PTR FTN()void  size(2) Largest target is 1
		 -> CMP1_DefaultInterruptCallback(), turn(), NULL(), 

    INT_InterruptHandler	PTR FTN()void  size(2) Largest target is 1
		 -> INT_DefaultInterruptHandler(), NULL(), 

    INT_SetInterruptHandler@InterruptHandler	PTR FTN()void  size(2) Largest target is 1
		 -> INT_DefaultInterruptHandler(), 


Critical Paths under _main in COMMON

    _main->_CMP1_InterruptCallbackRegister
    _INTERRUPT_Initialize->_INT_SetInterruptHandler
    _CMP1_Initialize->_CMP1_InterruptCallbackRegister

Critical Paths under _INTERRUPT_InterruptManager in COMMON

    None.

Critical Paths under _main in BANK0

    None.

Critical Paths under _INTERRUPT_InterruptManager in BANK0

    None.

Critical Paths under _main in BANK1

    None.

Critical Paths under _INTERRUPT_InterruptManager in BANK1

    None.

Critical Paths under _main in BANK2

    None.

Critical Paths under _INTERRUPT_InterruptManager in BANK2

    None.

Critical Paths under _main in BANK3

    None.

Critical Paths under _INTERRUPT_InterruptManager in BANK3

    None.

Critical Paths under _main in BANK4

    None.

Critical Paths under _INTERRUPT_InterruptManager in BANK4

    None.

Call Graph Tables:

 ---------------------------------------------------------------------------------
 (Depth) Function   	        Calls       Base Space   Used Autos Params    Refs
 ---------------------------------------------------------------------------------
 (0) _main                                                 0     0      0     490
     _CMP1_InterruptCallbackRegister
                  _SYSTEM_Initialize
 ---------------------------------------------------------------------------------
 (1) _SYSTEM_Initialize                                    0     0      0     294
                   _CLOCK_Initialize
                    _CMP1_Initialize
                     _FVR_Initialize
               _INTERRUPT_Initialize
             _PIN_MANAGER_Initialize
 ---------------------------------------------------------------------------------
 (2) _PIN_MANAGER_Initialize                               0     0      0       0
 ---------------------------------------------------------------------------------
 (2) _INTERRUPT_Initialize                                 0     0      0      98
            _INT_SetInterruptHandler
 ---------------------------------------------------------------------------------
 (3) _INT_SetInterruptHandler                              2     0      2      98
                                              0 COMMON     2     0      2
 ---------------------------------------------------------------------------------
 (2) _FVR_Initialize                                       0     0      0       0
 ---------------------------------------------------------------------------------
 (2) _CMP1_Initialize                                      0     0      0     196
     _CMP1_InterruptCallbackRegister
 ---------------------------------------------------------------------------------
 (3) _CMP1_InterruptCallbackRegister                       2     0      2     196
                                              0 COMMON     2     0      2
 ---------------------------------------------------------------------------------
 (2) _CLOCK_Initialize                                     0     0      0       0
 ---------------------------------------------------------------------------------
 Estimated maximum stack depth 3
 ---------------------------------------------------------------------------------
 (Depth) Function   	        Calls       Base Space   Used Autos Params    Refs
 ---------------------------------------------------------------------------------
 (4) _INTERRUPT_InterruptManager                           0     0      0       0
                           _CMP1_ISR
 ---------------------------------------------------------------------------------
 (5) _CMP1_ISR                                             0     0      0       0
                                NULL *
      _CMP1_DefaultInterruptCallback *
                               _turn *
 ---------------------------------------------------------------------------------
 (6) _turn                                                 0     0      0       0
               _CMP1_GetOutputStatus
 ---------------------------------------------------------------------------------
 (7) _CMP1_GetOutputStatus                                 0     0      0       0
 ---------------------------------------------------------------------------------
 (6) _CMP1_DefaultInterruptCallback                        0     0      0       0
 ---------------------------------------------------------------------------------
 (6) NULL(Fake)                                            0     0      0       0
 ---------------------------------------------------------------------------------
 Estimated maximum stack depth 7
 ---------------------------------------------------------------------------------

 Call Graph Graphs:

 _main (ROOT)
   _CMP1_InterruptCallbackRegister
   _SYSTEM_Initialize
     _CLOCK_Initialize
     _CMP1_Initialize
       _CMP1_InterruptCallbackRegister
     _FVR_Initialize
     _INTERRUPT_Initialize
       _INT_SetInterruptHandler
     _PIN_MANAGER_Initialize

 _INTERRUPT_InterruptManager (ROOT)
   _CMP1_ISR
     NULL(Fake) *
     _CMP1_DefaultInterruptCallback *
     _turn *
       _CMP1_GetOutputStatus

 Address spaces:
Name               Size   Autos  Total    Cost      Usage
BIGRAM             170      0       0       0        0.0%
EEDATA             100      0       0       0        0.0%
NULL                 0      0       0       0        0.0%
CODE                 0      0       0       0        0.0%
BITCOMMON            E      0       0       1        0.0%
BITSFR0              0      0       0       1        0.0%
SFR0                 0      0       0       1        0.0%
COMMON               E      2       6       2       42.9%
BITSFR1              0      0       0       2        0.0%
SFR1                 0      0       0       2        0.0%
BITSFR2              0      0       0       3        0.0%
SFR2                 0      0       0       3        0.0%
STACK                0      0       0       3        0.0%
BITSFR3              0      0       0       4        0.0%
SFR3                 0      0       0       4        0.0%
ABS                  0      0       6       4        0.0%
BITBANK0            50      0       0       5        0.0%
BITSFR4              0      0       0       5        0.0%
SFR4                 0      0       0       5        0.0%
BANK0               50      0       0       6        0.0%
BITSFR5              0      0       0       6        0.0%
SFR5                 0      0       0       6        0.0%
BITBANK1            50      0       0       7        0.0%
BITSFR6              0      0       0       7        0.0%
SFR6                 0      0       0       7        0.0%
BANK1               50      0       0       8        0.0%
BITSFR7              0      0       0       8        0.0%
SFR7                 0      0       0       8        0.0%
BITBANK2            50      0       0       9        0.0%
BITSFR8              0      0       0       9        0.0%
SFR8                 0      0       0       9        0.0%
BANK2               50      0       0      10        0.0%
BITSFR9              0      0       0      10        0.0%
SFR9                 0      0       0      10        0.0%
BITBANK3            50      0       0      11        0.0%
BITSFR10             0      0       0      11        0.0%
SFR10                0      0       0      11        0.0%
BANK3               50      0       0      12        0.0%
BITSFR11             0      0       0      12        0.0%
SFR11                0      0       0      12        0.0%
BITBANK4            30      0       0      13        0.0%
BITSFR12             0      0       0      13        0.0%
SFR12                0      0       0      13        0.0%
BANK4               30      0       0      14        0.0%
BITSFR13             0      0       0      14        0.0%
SFR13                0      0       0      14        0.0%
BITSFR14             0      0       0      15        0.0%
SFR14                0      0       0      15        0.0%
DATA                 0      0       6      15        0.0%
BITSFR15             0      0       0      16        0.0%
SFR15                0      0       0      16        0.0%
BITSFR16             0      0       0      17        0.0%
SFR16                0      0       0      17        0.0%
BITSFR17             0      0       0      18        0.0%
SFR17                0      0       0      18        0.0%
BITSFR18             0      0       0      19        0.0%
SFR18                0      0       0      19        0.0%
BITSFR19             0      0       0      20        0.0%
SFR19                0      0       0      20        0.0%
BITSFR20             0      0       0      21        0.0%
SFR20                0      0       0      21        0.0%
BITSFR21             0      0       0      22        0.0%
SFR21                0      0       0      22        0.0%
BITSFR22             0      0       0      23        0.0%
SFR22                0      0       0      23        0.0%
BITSFR23             0      0       0      24        0.0%
SFR23                0      0       0      24        0.0%
BITSFR24             0      0       0      25        0.0%
SFR24                0      0       0      25        0.0%
BITSFR25             0      0       0      26        0.0%
SFR25                0      0       0      26        0.0%
BITSFR26             0      0       0      27        0.0%
SFR26                0      0       0      27        0.0%
BITSFR27             0      0       0      28        0.0%
SFR27                0      0       0      28        0.0%
BITSFR28             0      0       0      29        0.0%
SFR28                0      0       0      29        0.0%
BITSFR29             0      0       0      30        0.0%
SFR29                0      0       0      30        0.0%
BITSFR30             0      0       0      31        0.0%
SFR30                0      0       0      31        0.0%
BITSFR31             0      0       0      32        0.0%
SFR31                0      0       0      32        0.0%


Microchip Technology PIC Macro Assembler V2.46 build 20240104201356 
Symbol Table                                                                                   Wed Sep  4 20:38:26 2024

                                           l21 004F                                             l38 00A0  
                                           l48 00B1                                             l64 005F  
                            ??_CMP1_Initialize 0076                                             l93 003C  
                                           u80 009C                                             u81 009B  
                       __end_of_FVR_Initialize 00B2                                            l105 00A8  
                                          l126 0095                                            l145 00AD  
                                          l172 006C                                            l173 006C  
                                          l803 00AE                                            l811 0023  
                                          l805 00A1                                            l821 0030  
                                          l813 0026                                            l807 00A4  
                                          l823 0033                                            l815 0029  
                                          l809 00A6                                            l825 0035  
                                          l817 002B                                            l827 003B  
                                          l819 002E                                            l873 0096  
                                          l881 003F                                            l875 009C  
                                          l883 0044                                            l891 008E  
                                          l885 004B                                            l877 00A9  
                                          l893 0050                                            l887 004D  
                                          l879 003D                                            l895 0060  
                                          l889 008B                                            l897 006A  
                                          l899 006B                                           _LATA 010C  
                                         _LATB 010D                                           i1l30 00B5  
                                         i1l41 00B6                                           i1l34 007C  
                                         _WPUA 020C                                           _WPUB 020D  
                                         u2_20 0085                                           u2_21 0084  
                                         u3_20 0077                                           u3_21 0076  
                                         u4_20 000A                                           u4_21 0009  
                                         u5_20 000F                                           u5_21 000E  
                                         u6_20 0014                                           u6_21 0013  
                                         _main 0060                                           btemp 007E  
                                         _turn 007D                    _INT_DefaultInterruptHandler 0000  
                                         start 0019                __end_of_INT_SetInterruptHandler 00AE  
                             __end_of_CMP1_ISR 007D                                ?_FVR_Initialize 0074  
                                        ?_main 0074                                          ?_turn 0074  
                                        _IOCBF 0396                                          _IOCBN 0395  
                                        _IOCBP 0394                                          i1l135 0017  
                                        i1l162 0085                                          i1l165 0088  
                                        i1l167 008A                                          i1l833 007D  
                                        i1l835 006F                                          i1l851 0006  
                                        i1l837 0071                                          i1l853 000A  
                                        i1l839 0077                                          i1l855 000F  
                                        i1l857 0014                                          i1l787 00B2  
                                        _TRISA 008C                                          _TRISB 008D  
                                        pclath 000A                                          status 0003  
                                        wtemp0 007E                   __end_of_CMP1_GetOutputStatus 00B6  
                              __initialization 001B                                   __end_of_main 006F  
                                 __end_of_turn 008B                    ?_INTERRUPT_InterruptManager 0074  
             ??_CMP1_InterruptCallbackRegister 0076                ?_CMP1_InterruptCallbackRegister 0074  
                                       ??_main 0076                                         ??_turn 0074  
CMP1_InterruptCallbackRegister@callbackHandler 0074                                         _ANSELA 018C  
                                       _ANSELB 018D                                         _BORCON 0116  
                                       _FVRCON 0117                                         _OSCCON 0099  
                            ?_CLOCK_Initialize 0074                ??_CMP1_DefaultInterruptCallback 0074  
                           ??_CLOCK_Initialize 0074                                      ?_CMP1_ISR 0074  
      INT_SetInterruptHandler@InterruptHandler 0074                              _SYSTEM_Initialize 0050  
                      __end_of__initialization 001F                                _CMP1_Initialize 003D  
                           ?_SYSTEM_Initialize 0074                                 __pcstackCOMMON 0074  
                          ??_SYSTEM_Initialize 0076                                 _OPTION_REGbits 0095  
                         _CMP1_GetOutputStatus 00B2                                     ??_CMP1_ISR 0074  
                    __end_of_SYSTEM_Initialize 0060                               ??_FVR_Initialize 0074  
                                   __pmaintext 0060                                     __pintentry 0004  
                                      _CM1CON0 0111                                        _CM1CON1 0112  
                        ?_CMP1_GetOutputStatus 0074                                        _OSCTUNE 0098  
                      __end_of_CMP1_Initialize 0050                                        __ptext1 0050  
                                      __ptext2 0023                                        __ptext3 008B  
                                      __ptext4 00A9                                        __ptext5 00AE  
                                      __ptext6 003D                                        __ptext7 0096  
                                      __ptext8 00A1                                      _CMOUTbits 0115  
                     ??_PIN_MANAGER_Initialize 0074                        _INT_SetInterruptHandler 00A9  
                         end_of_initialization 001F                          _CMP1_InterruptHandler 0072  
                       ??_CMP1_GetOutputStatus 0074                               ?_CMP1_Initialize 0074  
                                  _CM1CON0bits 0111                   __end_of_INTERRUPT_Initialize 0096  
                    ??_INT_SetInterruptHandler 0076                            start_initialization 001B  
                                  __pbssCOMMON 0070                                      ___latbits 0001  
                       _PIN_MANAGER_Initialize 0023                   ??_INTERRUPT_InterruptManager 0074  
                                     _CMP1_ISR 006F                           _INTERRUPT_Initialize 008B  
                             _CLOCK_Initialize 00A1                                       _LATAbits 010C  
                                     _PIE2bits 0092                                       _PIR2bits 0012  
                        ?_INTERRUPT_Initialize 0074          __end_of_CMP1_DefaultInterruptCallback 00B7  
                _CMP1_DefaultInterruptCallback 00B6                                       __ptext10 006F  
                                     __ptext11 00B6                                       __ptext12 007D  
                                     __ptext13 00B2         __end_of_CMP1_InterruptCallbackRegister 00A1  
               _CMP1_InterruptCallbackRegister 0096                                       int$flags 007E  
           __end_of_INTERRUPT_InterruptManager 0019                     _INTERRUPT_InterruptManager 0004  
                                   _INTCONbits 000B                                     _FVRCONbits 0117  
                         _INT_InterruptHandler 0070                         ??_INTERRUPT_Initialize 0076  
                                     intlevel1 0000                        ?_PIN_MANAGER_Initialize 0074  
               ?_CMP1_DefaultInterruptCallback 0074                       ?_INT_SetInterruptHandler 0074  
                     __end_of_CLOCK_Initialize 00A9                                 _FVR_Initialize 00AE  
               __end_of_PIN_MANAGER_Initialize 003D  
